 vfp2c32

 Timestamp is 5e5b5eb5 (Sun Mar 01 08:05:25 2020)

 Preferred load address is 10000000

 Start         Length     Name                   Class
 0001:00000000 0002fd98H .text                   CODE
 0001:0002fd98 00001c0eH .text$x                 CODE
 0001:000319a6 00000059H .text$yc                CODE
 0001:000319ff 00000042H .text$yd                CODE
 0002:00000000 000005b8H .idata$5                DATA
 0002:000005b8 00004808H .rdata                  DATA
 0002:00004dc0 00000044H .rdata$r                DATA
 0002:00004e04 00000004H .rtc$IAA                DATA
 0002:00004e08 00000004H .rtc$IZZ                DATA
 0002:00004e0c 00000004H .rtc$TAA                DATA
 0002:00004e10 00000004H .rtc$TZZ                DATA
 0002:00004e18 000051a0H .xdata$x                DATA
 0002:00009fb8 00000000H ATL$__a                 DATA
 0002:00009fb8 00000000H ATL$__z                 DATA
 0002:00009fb8 00000104H .idata$2                DATA
 0002:0000a0bc 00000014H .idata$3                DATA
 0002:0000a0d0 000005b8H .idata$4                DATA
 0002:0000a688 0000158aH .idata$6                DATA
 0002:0000bc20 00000067H .edata                  DATA
 0003:00000000 00000004H .CRT$XCA                DATA
 0003:00000004 00000004H .CRT$XCAA               DATA
 0003:00000008 00000004H .CRT$XCL                DATA
 0003:0000000c 0000000cH .CRT$XCU                DATA
 0003:00000018 00000004H .CRT$XCZ                DATA
 0003:0000001c 00000004H .CRT$XIA                DATA
 0003:00000020 00000004H .CRT$XIZ                DATA
 0003:00000030 000010d0H .data                   DATA
 0003:00001100 000025dcH .bss                    DATA
 0004:00000000 000000e8H .rsrc$01                DATA
 0004:000000f0 00000628H .rsrc$02                DATA

  Address         Publics by Value              Rva+Base     Lib:Object

 0000:00000000       __except_list              00000000     <absolute>
 0000:00000000       ___safe_se_handler_table   00000000     <absolute>
 0000:00000000       ___safe_se_handler_count   00000000     <absolute>
 0000:00009876       __fltused                  00009876     <absolute>
 0000:00009876       __ldused                   00009876     <absolute>
 0000:00000000       ___ImageBase               10000000     <linker-defined>
 0001:00000000       ?_AtlGetThreadACPFake@ATL@@YGIXZ 10001000 f i vfp2c32.obj
 0001:00000050       ?_AtlGetThreadACPReal@ATL@@YGIXZ 10001050 f i vfp2c32.obj
 0001:00000054       ?_AtlGetThreadACPThunk@ATL@@YGIXZ 10001054 f i vfp2c32.obj
 0001:000000a4       ??0CComCriticalSection@ATL@@QAE@XZ 100010a4 f i vfp2c32.obj
 0001:000000b4       ?Init@CComCriticalSection@ATL@@QAEJXZ 100010b4 f i vfp2c32.obj
 0001:00000104       ?RaiseError@@YGXH@Z        10001104 f i vfp2c32.obj
 0001:00000134       ?Return@@YGXI@Z            10001134 f i vfp2c32.obj
 0001:00000134       ?Return@@YGXK@Z            10001134 f i vfp2ccom.obj
 0001:00000160       ??0UIntValue@@QAE@I@Z      10001160 f i vfp2c32.obj
 0001:00000183       ??0FoxValue@@QAE@XZ        10001183 f i vfp2c32.obj
 0001:00000194       ??1FoxValue@@QAE@XZ        10001194 f i vfp2c32.obj
 0001:000001b9       ?FreeHandle@FoxValue@@QAEAAV1@XZ 100011b9 f i vfp2c32.obj
 0001:000001cc       ?UnlockHandle@FoxValue@@QAEAAV1@XZ 100011cc f i vfp2c32.obj
 0001:000001e1       ?UnlockObject@FoxValue@@QAEAAV1@XZ 100011e1 f i vfp2c32.obj
 0001:0000020f       ?FreeObject@FoxValue@@QAEAAV1@XZ 1000120f f i vfp2c32.obj
 0001:00000223       ?ReturnRows@FoxArray@@QAEXXZ 10001223 f i vfp2c32.obj
 0001:0000025f       ??4FoxArray@@QAEAAV0@AAVFoxValue@@@Z 1000125f f i vfp2c32.obj
 0001:00000286       ?Return@@YGXN@Z            10001286 f i vfp2carray.obj
 0001:0000029d       ?Return@@YGXT_LARGE_INTEGER@@@Z 1000129d f i vfp2carray.obj
 0001:000002b0       ?Release@FoxValue@@QAEXXZ  100012b0 f i vfp2carray.obj
 0001:000002d8       ??4FoxValue@@QAEAAV0@AAULocator@@@Z 100012d8 f i vfp2carray.obj
 0001:0000030a       ?ValidateDimension@FoxArray@@QAEAAV1@I@Z 1000130a f i vfp2carray.obj
 0001:0000032d       ?InByteRange@@YG_NH@Z      1000132d f i vfp2cassembly.obj
 0001:00000346       ?MODRM_REG_REG@RuntimeAssembler@@AAEEW4_REGISTER@@@Z 10001346 f i vfp2cassembly.obj
 0001:0000035b       ?MODRM_REG_OP_REG@RuntimeAssembler@@AAEEEW4_REGISTER@@@Z 1000135b f i vfp2cassembly.obj
 0001:0000037f       ?MODRM_REG_REG_REG@RuntimeAssembler@@AAEEW4_REGISTER@@0@Z 1000137f f i vfp2cassembly.obj
 0001:000003b3       ?MODRM_DISP32_REG_STACK@RuntimeAssembler@@AAEEW4_REGISTER@@@Z 100013b3 f i vfp2cassembly.obj
 0001:000003ce       ?MODRM_DISP8_REG_STACK@RuntimeAssembler@@AAEEW4_REGISTER@@@Z 100013ce f i vfp2cassembly.obj
 0001:000003e9       ?AtlThrow@ATL@@YGXJ@Z      100013e9 f i vfp2casync.obj
 0001:00000401       ?AtlComPtrAssign@ATL@@YGPAUIUnknown@@PAPAU2@PAU2@@Z 10001401 f i vfp2casync.obj
 0001:00000423       ?Create@CAtlPlex@ATL@@SGPAU12@AAPAU12@II@Z 10001423 f i vfp2casync.obj
 0001:00000440       ?FreeDataChain@CAtlPlex@ATL@@QAEXXZ 10001440 f i vfp2casync.obj
 0001:00000457       ?ReleaseValue@@YGXAAUValue@@@Z 10001457 f i vfp2casync.obj
 0001:0000047d       ??0AutoYieldLock@@QAE@XZ   1000147d f i vfp2casync.obj
 0001:000004a2       ??1AutoYieldLock@@QAE@XZ   100014a2 f i vfp2casync.obj
 0001:000004b8       ??1ApiHandle@@QAE@XZ       100014b8 f i vfp2casync.obj
 0001:000004c7       ??4ApiHandle@@QAEXPAX@Z    100014c7 f i vfp2casync.obj
 0001:000004e0       ?Create@CEvent@@QAE_N_N0PADPAU_SECURITY_ATTRIBUTES@@@Z 100014e0 f i vfp2casync.obj
 0001:0000052c       ??0CThreadManager@@QAE@XZ  1000152c f i vfp2casync.obj
 0001:00000557       ??1CThreadManager@@QAE@XZ  10001557 f i vfp2casync.obj
 0001:0000056f       ?NextOffset@FindFileChangeExBuffer@@QAE_NK@Z 1000156f f i vfp2casync.obj
 0001:00000590       ?release@?$CBoundSPSCQueueDestructor@UFindFileChangeExCallback@@@@SGXAAUFindFileChangeExCallback@@@Z 10001590 f i vfp2casync.obj
 0001:000005b2       ??1WaitForObjectThread@@QAE@XZ 100015b2 f i vfp2casync.obj
 0001:000005d4       ??_GFindFileChangeThread@@QAEPAXI@Z 100015d4 f i vfp2casync.obj
 0001:000005f5       ??_GFindFileChangeExEntry@@QAEPAXI@Z 100015f5 f i vfp2casync.obj
 0001:00000616       ??_GFindFileChangeExThread@@QAEPAXI@Z 10001616 f i vfp2casync.obj
 0001:00000637       ??1FindFileChangeExThread@@QAE@XZ 10001637 f i vfp2casync.obj
 0001:00000686       ??_GFindRegistryChangeThread@@QAEPAXI@Z 10001686 f i vfp2casync.obj
 0001:000006a7       ??_GWaitForObjectThread@@QAEPAXI@Z 100016a7 f i vfp2casync.obj
 0001:000006c8       ?AddBs@?$CStrBuilder@$0BAG@@@QAEAAV1@XZ 100016c8 f i vfp2casync.obj
 0001:000006e4       ?LongPathName@?$CStrBuilder@$0BAG@@@QAEAAV1@XZ 100016e4 f i vfp2casync.obj
 0001:0000071a       ?CompareToBase@?$CStrBuilder@$0BAG@@@QAE_NAAV1@@Z 1000171a f i vfp2casync.obj
 0001:00000736       ??4?$CStrBuilder@$0BAG@@@QAEAAV0@ABV0@@Z 10001736 f i vfp2casync.obj
 0001:00000776       ??4?$CStrBuilder@$0BAG@@@QAEAAV0@ABVFoxString@@@Z 10001776 f i vfp2casync.obj
 0001:000007bd       ??4?$CStrBuilder@$0BAG@@@QAEAAV0@PBD@Z 100017bd f i vfp2casync.obj
 0001:0000080b       ?AppendFormatBase@?$CStrBuilder@$0BAG@@@QAAAAV1@PBDZZ 1000180b f i vfp2casync.obj
 0001:0000080b       ?AppendFormatBase@?$CStrBuilder@$0IAA@@@QAAAAV1@PBDZZ 1000180b f i vfp2casync.obj
 0001:00000828       ?Strdup@?$CStrBuilder@$0IAA@@@QBEPADXZ 10001828 f i vfp2casync.obj
 0001:00000853       ??4?$CStrBuilder@$0IAA@@@QAEAAV0@ABVFoxString@@@Z 10001853 f i vfp2casync.obj
 0001:0000089a       ??4?$CStrBuilder@$0IAA@@@QAEAAV0@PBD@Z 1000189a f i vfp2casync.obj
 0001:000008e8       ??1?$CAutoPtr@VFindFileChangeExBuffer@@@ATL@@QAE@XZ 100018e8 f i vfp2casync.obj
 0001:000008f4       ?Initialize@?$FoxComCallback@$03@@QAEXPAUIDispatch@@AAVFoxString@@@Z 100018f4 f i vfp2casync.obj
 0001:00000922       ??0?$CUnboundBlockSPSCQueue@UFindFileChangeExCallback@@$0BAAA@@@QAE@XZ 10001922 f i vfp2casync.obj
 0001:00000959       ??1?$CUnboundBlockSPSCQueue@UFindFileChangeExCallback@@$0BAAA@@@QAE@XZ 10001959 f i vfp2casync.obj
 0001:00000972       ?Push@?$CUnboundBlockSPSCQueue@UFindFileChangeExCallback@@$0BAAA@@@QAEXABUFindFileChangeExCallback@@@Z 10001972 f i vfp2casync.obj
 0001:000009d3       ?Pop@?$CUnboundBlockSPSCQueue@UFindFileChangeExCallback@@$0BAAA@@@QAE_NAAUFindFileChangeExCallback@@@Z 100019d3 f i vfp2casync.obj
 0001:00000a16       ?Peek@?$CUnboundBlockSPSCQueue@UFindFileChangeExCallback@@$0BAAA@@@QAE_NXZ 10001a16 f i vfp2casync.obj
 0001:00000a35       ??_GNode@?$CUnboundBlockSPSCQueue@UFindFileChangeExCallback@@$0BAAA@@@QAEPAXI@Z 10001a35 f i vfp2casync.obj
 0001:00000a56       ??1Node@?$CUnboundBlockSPSCQueue@UFindFileChangeExCallback@@$0BAAA@@@QAE@XZ 10001a56 f i vfp2casync.obj
 0001:00000a5b       ?InitDispId@?$FoxComCallback@$03@@AAEXAAVFoxString@@@Z 10001a5b f i vfp2casync.obj
 0001:00000aee       ?InitParameters@?$FoxComCallback@$03@@AAEXXZ 10001aee f i vfp2casync.obj
 0001:00000b3d       ??1?$CBoundSPSCQueue@UFindFileChangeExCallback@@$0PP@@@QAE@XZ 10001b3d f i vfp2casync.obj
 0001:00000b61       ?Push@?$CBoundSPSCQueue@UFindFileChangeExCallback@@$0PP@@@QAE_NABUFindFileChangeExCallback@@@Z 10001b61 f i vfp2casync.obj
 0001:00000b9f       ?Pop@?$CBoundSPSCQueue@UFindFileChangeExCallback@@$0PP@@@QAE_NAAUFindFileChangeExCallback@@@Z 10001b9f f i vfp2casync.obj
 0001:00000be3       ?Peek@?$CBoundSPSCQueue@UFindFileChangeExCallback@@$0PP@@@QAE_NXZ 10001be3 f i vfp2casync.obj
 0001:00000c04       ??0?$CAtlMap@GPAVFindFileChangeExEntry@@V?$CElementTraits@G@ATL@@V?$CElementTraits@PAVFindFileChangeExEntry@@@3@@ATL@@QAE@IMMMI@Z 10001c04 f i vfp2casync.obj
 0001:00000c4e       ?Lookup@?$CAtlMap@GPAVFindFileChangeExEntry@@V?$CElementTraits@G@ATL@@V?$CElementTraits@PAVFindFileChangeExEntry@@@3@@ATL@@QBE_NGAAPAVFindFileChangeExEntry@@@Z 10001c4e f i vfp2casync.obj
 0001:00000c7e       ??A?$CAtlMap@GPAVFindFileChangeExEntry@@V?$CElementTraits@G@ATL@@V?$CElementTraits@PAVFindFileChangeExEntry@@@3@@ATL@@QAEAAPAVFindFileChangeExEntry@@G@Z 10001c7e f i vfp2casync.obj
 0001:00000cb8       ?RemoveKey@?$CAtlMap@GPAVFindFileChangeExEntry@@V?$CElementTraits@G@ATL@@V?$CElementTraits@PAVFindFileChangeExEntry@@@3@@ATL@@QAE_NG@Z 10001cb8 f i vfp2casync.obj
 0001:00000cf4       ?RemoveAtPos@?$CAtlMap@GPAVFindFileChangeExEntry@@V?$CElementTraits@G@ATL@@V?$CElementTraits@PAVFindFileChangeExEntry@@@3@@ATL@@QAEXPAU__POSITION@@@Z 10001cf4 f i vfp2casync.obj
 0001:00000d1c       ?GetStartPosition@?$CAtlMap@GPAVFindFileChangeExEntry@@V?$CElementTraits@G@ATL@@V?$CElementTraits@PAVFindFileChangeExEntry@@@3@@ATL@@QBEPAU__POSITION@@XZ 10001d1c f i vfp2casync.obj
 0001:00000d49       ?GetNextValue@?$CAtlMap@GPAVFindFileChangeExEntry@@V?$CElementTraits@G@ATL@@V?$CElementTraits@PAVFindFileChangeExEntry@@@3@@ATL@@QAEAAPAVFindFileChangeExEntry@@AAPAU__POSITION@@@Z 10001d49 f i vfp2casync.obj
 0001:00000d5a       ??1?$CAtlMap@GPAVFindFileChangeExEntry@@V?$CElementTraits@G@ATL@@V?$CElementTraits@PAVFindFileChangeExEntry@@@3@@ATL@@QAE@XZ 10001d5a f i vfp2casync.obj
 0001:00000d5f       ??$Call@PAXKUCStrView@@@?$FoxComCallback@$03@@QAEJPAXKUCStrView@@@Z 10001d5f f i vfp2casync.obj
 0001:00000da5       ??$Call@PAXHUCStrView@@U1@@?$FoxComCallback@$03@@QAEJPAXHUCStrView@@1@Z 10001da5 f i vfp2casync.obj
 0001:00000df9       ??$Call@PAXHUCStrView@@K@?$FoxComCallback@$03@@QAEJPAXHUCStrView@@K@Z 10001df9 f i vfp2casync.obj
 0001:00000e55       ?SetParameter@?$FoxComCallback@$03@@QAEXHUCStrView@@@Z 10001e55 f i vfp2casync.obj
 0001:00000e8c       ?Call@?$FoxComCallback@$03@@QAEJXZ 10001e8c f i vfp2casync.obj
 0001:00000eb8       ?RemoveAll@?$CAtlList@PAVCThread@@V?$CElementTraits@PAVCThread@@@ATL@@@ATL@@QAEXXZ 10001eb8 f i vfp2casync.obj
 0001:00000ee5       ?RemoveAll@?$CAtlMap@GPAVFindFileChangeExEntry@@V?$CElementTraits@G@ATL@@V?$CElementTraits@PAVFindFileChangeExEntry@@@3@@ATL@@QAEXXZ 10001ee5 f i vfp2casync.obj
 0001:00000f47       ?GetNode@?$CAtlMap@GPAVFindFileChangeExEntry@@V?$CElementTraits@G@ATL@@V?$CElementTraits@PAVFindFileChangeExEntry@@@3@@ATL@@ABEPAVCNode@12@GAAI0AAPAV312@@Z 10001f47 f i vfp2casync.obj
 0001:00000f8f       ?CreateNode@?$CAtlMap@GPAVFindFileChangeExEntry@@V?$CElementTraits@G@ATL@@V?$CElementTraits@PAVFindFileChangeExEntry@@@3@@ATL@@AAEPAVCNode@12@GII@Z 10001f8f f i vfp2casync.obj
 0001:00000fc5       ?RemoveNode@?$CAtlMap@GPAVFindFileChangeExEntry@@V?$CElementTraits@G@ATL@@V?$CElementTraits@PAVFindFileChangeExEntry@@@3@@ATL@@AAEXPAVCNode@12@0@Z 10001fc5 f i vfp2casync.obj
 0001:00000fea       ?FindNextNode@?$CAtlMap@GPAVFindFileChangeExEntry@@V?$CElementTraits@G@ATL@@V?$CElementTraits@PAVFindFileChangeExEntry@@@3@@ATL@@ABEPAVCNode@12@PAV312@@Z 10001fea f i vfp2casync.obj
 0001:00001021       ?FreeNode@?$CAtlList@PAVCThread@@V?$CElementTraits@PAVCThread@@@ATL@@@ATL@@AAEXPAVCNode@12@@Z 10002021 f i vfp2casync.obj
 0001:0000103e       ?InitHashTable@?$CAtlMap@GPAVFindFileChangeExEntry@@V?$CElementTraits@G@ATL@@V?$CElementTraits@PAVFindFileChangeExEntry@@@3@@ATL@@QAE_NI_N@Z 1000203e f i vfp2casync.obj
 0001:000010b6       ?Rehash@?$CAtlMap@GPAVFindFileChangeExEntry@@V?$CElementTraits@G@ATL@@V?$CElementTraits@PAVFindFileChangeExEntry@@@3@@ATL@@QAEXI@Z 100020b6 f i vfp2casync.obj
 0001:00001198       ?PickSize@?$CAtlMap@GPAVFindFileChangeExEntry@@V?$CElementTraits@G@ATL@@V?$CElementTraits@PAVFindFileChangeExEntry@@@3@@ATL@@ABEII@Z 10002198 f i vfp2casync.obj
 0001:000011e8       ?NewNode@?$CAtlMap@GPAVFindFileChangeExEntry@@V?$CElementTraits@G@ATL@@V?$CElementTraits@PAVFindFileChangeExEntry@@@3@@ATL@@AAEPAVCNode@12@GII@Z 100021e8 f i vfp2casync.obj
 0001:00001279       ?FreeNode@?$CAtlMap@GPAVFindFileChangeExEntry@@V?$CElementTraits@G@ATL@@V?$CElementTraits@PAVFindFileChangeExEntry@@@3@@ATL@@AAEXPAVCNode@12@@Z 10002279 f i vfp2casync.obj
 0001:000012b0       ?FreePlexes@?$CAtlMap@GPAVFindFileChangeExEntry@@V?$CElementTraits@G@ATL@@V?$CElementTraits@PAVFindFileChangeExEntry@@@3@@ATL@@AAEXXZ 100022b0 f i vfp2casync.obj
 0001:000012c5       ?UpdateRehashThresholds@?$CAtlMap@GPAVFindFileChangeExEntry@@V?$CElementTraits@G@ATL@@V?$CElementTraits@PAVFindFileChangeExEntry@@@3@@ATL@@AAEXXZ 100022c5 f i vfp2casync.obj
 0001:00001303       ?AtlHresultFromLastError@ATL@@YGJXZ 10002303 f i vfp2casynccom.obj
 0001:00001318       ??0CComBSTR@ATL@@QAE@PB_W@Z 10002318 f i vfp2casynccom.obj
 0001:00001342       ??4CComBSTR@ATL@@QAEAAV01@PB_W@Z 10002342 f i vfp2casynccom.obj
 0001:0000137a       ?ToLower@CComBSTR@ATL@@QAEJXZ 1000237a f i vfp2casynccom.obj
 0001:000015a1       ??8CComBSTR@ATL@@QBE_NABV01@@Z 100025a1 f i vfp2casynccom.obj
 0001:000015be       ??8CComBSTR@ATL@@QBE_NPB_W@Z 100025be f i vfp2casynccom.obj
 0001:000015eb       ??1CComVariant@ATL@@QAE@XZ 100025eb f i vfp2casynccom.obj
 0001:000015f3       ?Detach@CComVariant@ATL@@QAEJPAUtagVARIANT@@@Z 100025f3 f i vfp2casynccom.obj
 0001:0000161b       ?AtlGetGITPtr@ATL@@YGJPAPAUIGlobalInterfaceTable@@@Z 1000261b f i vfp2casynccom.obj
 0001:0000164a       ??1CComTypeAttr@ATL@@QAE@XZ 1000264a f i vfp2casynccom.obj
 0001:0000165b       ?Release@CComTypeAttr@ATL@@QAEXXZ 1000265b f i vfp2casynccom.obj
 0001:0000166f       ??1CComFuncDesc@ATL@@QAE@XZ 1000266f f i vfp2casynccom.obj
 0001:00001680       ?Release@CComFuncDesc@ATL@@QAEXXZ 10002680 f i vfp2casynccom.obj
 0001:00001694       ??1CComExcepInfo@ATL@@QAE@XZ 10002694 f i vfp2casynccom.obj
 0001:00001699       ?Clear@CComExcepInfo@ATL@@QAEXXZ 10002699 f i vfp2casynccom.obj
 0001:000016cb       ?Evaluate@@YGXAAUValue@@PAD@Z 100026cb f i vfp2casynccom.obj
 0001:000016eb       ?ReturnIDispatch@@YGXPAX@Z 100026eb f i vfp2casynccom.obj
 0001:0000172f       ?GetCounter@PerformanceCounter@@SG?AT_LARGE_INTEGER@@XZ 1000272f f i vfp2casynccom.obj
 0001:00001750       ?GetMillisecondsSince@PerformanceCounter@@SG_JAAT_LARGE_INTEGER@@@Z 10002750 f i vfp2casynccom.obj
 0001:00001787       ?CountsPerMillisecond@PerformanceCounter@@CG_JXZ 10002787 f i vfp2casynccom.obj
 0001:000017c6       ??1?$CTempBuffer@_W$0IA@VCCRTAllocator@ATL@@@ATL@@QAE@XZ 100027c6 f i vfp2casynccom.obj
 0001:000017c6       ??1?$CTempBuffer@D$0IA@VCCRTAllocator@ATL@@@ATL@@QAE@XZ 100027c6 f i vfp2casynccom.obj
 0001:000017d3       ??1?$CAutoPtr@VCComCallInfo@@@ATL@@QAE@XZ 100027d3 f i vfp2casynccom.obj
 0001:000017e5       ?Attach@?$CComGITPtr@UIDispatch@@@ATL@@QAEJPAUIDispatch@@@Z 100027e5 f i vfp2casynccom.obj
 0001:00001837       ?Revoke@?$CComGITPtr@UIDispatch@@@ATL@@QAEJXZ 10002837 f i vfp2casynccom.obj
 0001:00001882       ?CopyTo@?$CComGITPtr@UIDispatch@@@ATL@@QBEJPAPAUIDispatch@@@Z 10002882 f i vfp2casynccom.obj
 0001:000018c2       ??_GCComCallInfo@@QAEPAXI@Z 100028c2 f i vfp2casynccom.obj
 0001:000018e3       ?FreeHeap@?$CTempBuffer@D$0IA@VCCRTAllocator@ATL@@@ATL@@AAEXXZ 100028e3 f i vfp2casynccom.obj
 0001:000018e3       ?FreeHeap@?$CTempBuffer@_W$0IA@VCCRTAllocator@ATL@@@ATL@@AAEXXZ 100028e3 f i vfp2casynccom.obj
 0001:000018ed       ?AllocateBytes@?$CTempBuffer@_W$0IA@VCCRTAllocator@ATL@@@ATL@@QAEPA_WI@Z 100028ed f i vfp2casynccom.obj
 0001:000018ed       ?AllocateBytes@?$CTempBuffer@D$0IA@VCCRTAllocator@ATL@@@ATL@@QAEPADI@Z 100028ed f i vfp2casynccom.obj
 0001:0000190d       ??0?$CComPtr@UIGlobalInterfaceTable@@@ATL@@QAE@XZ 1000290d f i vfp2casynccom.obj
 0001:00001911       ?AllocateHeap@?$CTempBuffer@_W$0IA@VCCRTAllocator@ATL@@@ATL@@AAEXI@Z 10002911 f i vfp2casynccom.obj
 0001:00001911       ?AllocateHeap@?$CTempBuffer@D$0IA@VCCRTAllocator@ATL@@@ATL@@AAEXI@Z 10002911 f i vfp2casynccom.obj
 0001:00001933       ??$?4VCComCallInfo@@@?$CAutoPtr@VCComCallInfo@@@ATL@@QAEAAV01@AAV01@@Z 10002933 f i vfp2casynccom.obj
 0001:0000194e       ?RemoveHead@?$CAtlList@V?$CAutoPtr@VCComCallInfo@@@ATL@@V?$CAutoPtrElementTraits@VCComCallInfo@@@2@@ATL@@QAE?AV?$CAutoPtr@VCComCallInfo@@@2@XZ 1000294e f i vfp2casynccom.obj
 0001:0000197c       ?AddTail@?$CAtlList@V?$CAutoPtr@VCComCallInfo@@@ATL@@V?$CAutoPtrElementTraits@VCComCallInfo@@@2@@ATL@@QAEPAU__POSITION@@AAV?$CAutoPtr@VCComCallInfo@@@2@@Z 1000297c f i vfp2casynccom.obj
 0001:00001999       ?RemoveAll@?$CAtlList@V?$CAutoPtr@VCComCallInfo@@@ATL@@V?$CAutoPtrElementTraits@VCComCallInfo@@@2@@ATL@@QAEXXZ 10002999 f i vfp2casynccom.obj
 0001:000019c6       ?RemoveAt@?$CAtlList@V?$CAutoPtr@VCComCallInfo@@@ATL@@V?$CAutoPtrElementTraits@VCComCallInfo@@@2@@ATL@@QAEXPAU__POSITION@@@Z 100029c6 f i vfp2casynccom.obj
 0001:000019f5       ?SetCount@?$CAtlArray@VCDispEntry@@V?$CElementTraits@VCDispEntry@@@ATL@@@ATL@@QAE_NIH@Z 100029f5 f i vfp2casynccom.obj
 0001:00001a6e       ??A?$CAtlArray@VCDispEntry@@V?$CElementTraits@VCDispEntry@@@ATL@@@ATL@@QAEAAVCDispEntry@@I@Z 10002a6e f i vfp2casynccom.obj
 0001:00001a86       ??1?$CAtlArray@VCDispEntry@@V?$CElementTraits@VCDispEntry@@@ATL@@@ATL@@QAE@XZ 10002a86 f i vfp2casynccom.obj
 0001:00001a9e       ?NewNode@?$CAtlList@V?$CAutoPtr@VCComCallInfo@@@ATL@@V?$CAutoPtrElementTraits@VCComCallInfo@@@2@@ATL@@AAEPAVCNode@12@AAV?$CAutoPtr@VCComCallInfo@@@2@PAV312@1@Z 10002a9e f i vfp2casynccom.obj
 0001:00001ace       ?FreeNode@?$CAtlList@V?$CAutoPtr@VCComCallInfo@@@ATL@@V?$CAutoPtrElementTraits@VCComCallInfo@@@2@@ATL@@AAEXPAVCNode@12@@Z 10002ace f i vfp2casynccom.obj
 0001:00001af4       ?GrowBuffer@?$CAtlArray@VCDispEntry@@V?$CElementTraits@VCDispEntry@@@ATL@@@ATL@@AAE_NI@Z 10002af4 f i vfp2casynccom.obj
 0001:00001b7e       ?CallConstructors@?$CAtlArray@VCDispEntry@@V?$CElementTraits@VCDispEntry@@@ATL@@@ATL@@CGXPAVCDispEntry@@I@Z 10002b7e f i vfp2casynccom.obj
 0001:00001b90       ?CallDestructors@?$CAtlArray@VCDispEntry@@V?$CElementTraits@VCDispEntry@@@ATL@@@ATL@@CGXPAVCDispEntry@@I@Z 10002b90 f i vfp2casynccom.obj
 0001:00001bab       ??_GCDispEntry@@QAEPAXI@Z  10002bab f i vfp2casynccom.obj
 0001:00001bcc       ??1CComBSTR@ATL@@QAE@XZ    10002bcc f i vfp2c32.obj
 0001:00001bcc       ??1CDispEntry@@QAE@XZ      10002bcc f i vfp2casynccom.obj
 0001:00001bd5       ?RelocateElements@?$CElementTraitsBase@VCDispEntry@@@ATL@@SGXPAVCDispEntry@@0I@Z 10002bd5 f i vfp2casynccom.obj
 0001:00001bf0       ??1CNode@?$CAtlList@V?$CAutoPtr@VCComCallInfo@@@ATL@@V?$CAutoPtrElementTraits@VCComCallInfo@@@2@@ATL@@QAE@XZ 10002bf0 f i vfp2casynccom.obj
 0001:00001c04       ?StrIEqual@@YG_NPAD0@Z     10002c04 f i vfp2ccallback.obj
 0001:00001c1c       ?Execute@@YGXPAD@Z         10002c1c f i vfp2ccom.obj
 0001:00001c3c       ??1FoxVariable@@QAE@XZ     10002c3c f i vfp2ccom.obj
 0001:00001c41       ?New@FoxVariable@@QAEAAV1@PAD_N@Z 10002c41 f i vfp2ccom.obj
 0001:00001c85       ?Release@FoxVariable@@QAEAAV1@XZ 10002c85 f i vfp2ccom.obj
 0001:00001c9b       ??4FoxVariable@@QAEAAV0@AAVFoxValue@@@Z 10002c9b f i vfp2ccom.obj
 0001:00001c9b       ??4FoxVariable@@QAEAAV0@AAUValue@@@Z 10002c9b f i vfp2ccppapi.obj
 0001:00001cc0       ??1CoTaskPtr@@QAE@XZ       10002cc0 f i vfp2ccom.obj
 0001:00001cce       ??1?$CComPtr@UIDispatch@@@ATL@@QAE@XZ 10002cce f i vfp2casync.obj
 0001:00001cce       ??1?$CComPtr@UIGlobalInterfaceTable@@@ATL@@QAE@XZ 10002cce f i vfp2casynccom.obj
 0001:00001cce       ??1?$CComPtr@UITypeInfo@@@ATL@@QAE@XZ 10002cce f i vfp2casynccom.obj
 0001:00001cce       ??1?$ComPtr@PAUIRunningObjectTable@@@@QAE@XZ 10002cce f i vfp2ccom.obj
 0001:00001cce       ??1?$FoxComCallback@$03@@QAE@XZ 10002cce f i vfp2casync.obj
 0001:00001cce       ??1?$ComPtr@PAUIMoniker@@@@QAE@XZ 10002cce f i vfp2ccom.obj
 0001:00001cce       ??1?$ComPtr@PAUIStorage@@@@QAE@XZ 10002cce f i vfp2ccom.obj
 0001:00001cdb       ?Store@@YGXAAULocator@@AAUValue@@@Z 10002cdb f i vfp2cconv.obj
 0001:00001cfb       ?ReleaseVar@@YGXJ@Z        10002cfb f i vfp2cconv.obj
 0001:00001d1b       ?ObjectRelease@@YGXABUValue@@@Z 10002d1b f i vfp2cconv.obj
 0001:00001d3b       ?Return@@YGXM@Z            10002d3b f i vfp2cconv.obj
 0001:00001d52       ?IsMemoRef@@YG_NAAULocator@@@Z 10002d52 f i vfp2cconv.obj
 0001:00001d65       ?AllocHandleEx@@YG_NAAUValue@@H@Z 10002d65 f i vfp2cconv.obj
 0001:00001d7d       ?Value2Int64@@YG_JAAUValue@@@Z 10002d7d f i vfp2cconv.obj
 0001:00001df5       ?ReturnInt64AsBinary@@YGX_K@Z 10002df5 f i vfp2cconv.obj
 0001:00001df5       ?ReturnInt64AsBinary@@YGX_J@Z 10002df5 f i vfp2cconv.obj
 0001:00001e44       ?ReturnInt64AsString@@YGX_J@Z 10002e44 f i vfp2cconv.obj
 0001:00001e64       ?ReturnInt64AsString@@YGX_K@Z 10002e64 f i vfp2cconv.obj
 0001:00001e84       ?ReturnInt64AsDouble@@YGX_J@Z 10002e84 f i vfp2cconv.obj
 0001:00001ea3       ?ReturnInt64AsDouble@@YGX_K@Z 10002ea3 f i vfp2cconv.obj
 0001:00001eea       ?AllocHandle@FoxValue@@QAEAAV1@H@Z 10002eea f i vfp2cconv.obj
 0001:00001f13       ?ARows@@YGJAAULocator@@@Z  10002f13 f i vfp2ccppapi.obj
 0001:00001f3f       ?ADims@@YGJAAULocator@@@Z  10002f3f f i vfp2ccppapi.obj
 0001:00001f6b       ?ExpandValue@@YG_NAAUValue@@H@Z 10002f6b f i vfp2ccppapi.obj
 0001:00001f6b       ?ExpandValue@@YG_NPAUValue@@H@Z 10002f6b f i vfp2ccppapi.obj
 0001:00001f87       ?NullTerminateValue@@YG_NPAUValue@@@Z 10002f87 f i vfp2ccppapi.obj
 0001:00001f87       ?NullTerminateValue@@YG_NAAUValue@@@Z 10002f87 f i vfp2ccppapi.obj
 0001:00001f9e       ?Init@CFoxVersion@@CGXXZ   10002f9e f i vfp2ccppapi.obj
 0001:00001ffc       ?MajorVersion@CFoxVersion@@SGHXZ 10002ffc f i vfp2ccppapi.obj
 0001:00002012       ??0FoxValue@@QAE@AAULocator@@@Z 10003012 f i vfp2ccppapi.obj
 0001:0000203d       ?Evaluate@FoxValue@@QAEAAV1@PAD@Z 1000303d f i vfp2ccppapi.obj
 0001:0000206f       ?LockHandle@FoxValue@@QAEAAV1@XZ 1000306f f i vfp2ccppapi.obj
 0001:00002084       ?SetHandleSize@FoxValue@@QAEAAV1@K@Z 10003084 f i vfp2ccppapi.obj
 0001:000020ae       ?NullTerminate@FoxValue@@QAEAAV1@XZ 100030ae f i vfp2ccppapi.obj
 0001:000020dc       ?Evaluate@FoxObject@@QAEAAV1@PAD@Z 100030dc f i vfp2ccppapi.obj
 0001:0000210e       ??_EFoxValue@@QAEPAXI@Z    1000310e f i vfp2ccppapi.obj
 0001:00002155       ?Grow@FoxArray@@QAEII@Z    10003155 f i vfp2cenum.obj
 0001:00002198       ??4FoxArray@@QAEAAV0@PAX@Z 10003198 f i vfp2cenum.obj
 0001:00002198       ??4FoxArray@@QAEAAV0@H@Z   10003198 f i vfp2cenum.obj
 0001:000021d2       ??4FoxArray@@QAEAAV0@_N@Z  100031d2 f i vfp2cenum.obj
 0001:00002209       ??0EnumParameter@@QAE@XZ   10003209 f i vfp2cenum.obj
 0001:0000224a       ??0WindowEnumParamEx@@QAE@XZ 1000324a f i vfp2cenum.obj
 0001:0000228b       ??1_RESOURCEENUMPARAM@@QAE@XZ 1000328b f i vfp2cenum.obj
 0001:0000228b       ??1WindowEnumParamEx@@QAE@XZ 1000328b f i vfp2cenum.obj
 0001:0000228b       ??1EnumParameter@@QAE@XZ   1000328b f i vfp2cenum.obj
 0001:00002295       ??0WindowEnumParam@@QAE@XZ 10003295 f i vfp2cenum.obj
 0001:000022ab       ?Ints2Double@@YGNHH@Z      100032ab f i vfp2cfile.obj
 0001:000022cc       ?Ints2Int64@@YG_JHH@Z      100032cc f i vfp2cfile.obj
 0001:000022ee       ??4FoxInt64@@QAEAAV0@_K@Z  100032ee f i vfp2cfile.obj
 0001:00002324       ??0FoxDateTime@@QAE@XZ     10003324 f i vfp2cfile.obj
 0001:0000233f       ??4FoxArray@@QAEAAV0@K@Z   1000333f f i vfp2c32.obj
 0001:0000233f       ??4FoxArray@@QAEAAV0@I@Z   1000333f f i vfp2cfile.obj
 0001:00002374       ?AppendBlank@FoxCursor@@QAEAAV1@XZ 10003374 f i vfp2cfile.obj
 0001:000023a1       ??4FoxCursor@@QAEAAV0@AAVFoxValue@@@Z 100033a1 f i vfp2cfile.obj
 0001:000023c6       ??4FoxCursor@@QAEAAV0@K@Z  100033c6 f i vfp2cfile.obj
 0001:000023f8       ??1FileSearch@@QAE@XZ      100033f8 f i vfp2cfile.obj
 0001:0000240b       ??0SwitchErrorMode@@QAE@I@Z 1000340b f i vfp2cfile.obj
 0001:00002428       ??1SwitchErrorMode@@QAE@XZ 10003428 f i vfp2cfile.obj
 0001:00002437       ??0VolumeMountPointSearch@@QAE@XZ 10003437 f i vfp2cfile.obj
 0001:00002477       ??Y?$CStrBuilder@$0IAA@@@QAEAAV0@PBD@Z 10003477 f i vfp2cfile.obj
 0001:000024d1       ?AddBsWc@?$CStrBuilder@$0BAG@@@QAEAAV1@XZ 100034d1 f i vfp2cfile.obj
 0001:00002503       ??Y?$CStrBuilder@$0BAG@@@QAEAAV0@PBD@Z 10003503 f i vfp2cfile.obj
 0001:0000255d       ?RemoveTail@?$CAtlList@PAXV?$CElementTraits@PAX@ATL@@@ATL@@QAEPAXXZ 1000355d f i vfp2cfile.obj
 0001:0000257f       ?AddTail@?$CAtlList@PAXV?$CElementTraits@PAX@ATL@@@ATL@@QAEPAU__POSITION@@PAX@Z 1000357f f i vfp2cfile.obj
 0001:000025a2       ?RemoveAt@?$CAtlList@PAXV?$CElementTraits@PAX@ATL@@@ATL@@QAEXPAU__POSITION@@@Z 100035a2 f i vfp2cfile.obj
 0001:000025cf       ?Find@?$CAtlList@PAXV?$CElementTraits@PAX@ATL@@@ATL@@QBEPAU__POSITION@@PAXPAU3@@Z 100035cf f i vfp2cfile.obj
 0001:000025eb       ?NewNode@?$CAtlList@PAXV?$CElementTraits@PAX@ATL@@@ATL@@AAEPAVCNode@12@PAXPAV312@1@Z 100035eb f i vfp2cfile.obj
 0001:0000261a       ?FreeNode@?$CAtlList@PAXV?$CElementTraits@PAX@ATL@@@ATL@@AAEXPAVCNode@12@@Z 1000361a f i vfp2cfile.obj
 0001:0000262d       ?RemoveAll@?$CAtlList@PAXV?$CElementTraits@PAX@ATL@@@ATL@@QAEXXZ 1000362d f i vfp2cfile.obj
 0001:0000265d       ??6FoxObject@@QAEAAV0@AAVFoxValue@@@Z 1000365d f i vfp2cfont.obj
 0001:0000268a       ??6FoxObject@@QAEAAV0@F@Z  1000368a f i vfp2cfont.obj
 0001:000026c9       ??6FoxObject@@QAEAAV0@G@Z  100036c9 f i vfp2cfont.obj
 0001:00002708       ??6FoxObject@@QAEAAV0@_N@Z 10003708 f i vfp2cfont.obj
 0001:00002741       ?IsDigit@@YG_ND@Z          10003741 f i vfp2chelpers.obj
 0001:00002759       ?RemoveHead@?$CAtlList@PAVCThread@@V?$CElementTraits@PAVCThread@@@ATL@@@ATL@@QAEPAVCThread@@XZ 10003759 f i vfp2chelpers.obj
 0001:0000277b       ?AddTail@?$CAtlList@PAVCThread@@V?$CElementTraits@PAVCThread@@@ATL@@@ATL@@QAEPAU__POSITION@@ABQAVCThread@@@Z 1000377b f i vfp2chelpers.obj
 0001:0000279e       ?RemoveAt@?$CAtlList@PAVCThread@@V?$CElementTraits@PAVCThread@@@ATL@@@ATL@@QAEXPAU__POSITION@@@Z 1000379e f i vfp2chelpers.obj
 0001:000027cd       ?Find@?$CAtlList@PAVCThread@@V?$CElementTraits@PAVCThread@@@ATL@@@ATL@@QBEPAU__POSITION@@ABQAVCThread@@PAU3@@Z 100037cd f i vfp2chelpers.obj
 0001:000027ed       ?NewNode@?$CAtlList@PAVCThread@@V?$CElementTraits@PAVCThread@@@ATL@@@ATL@@AAEPAVCNode@12@ABQAVCThread@@PAV312@1@Z 100037ed f i vfp2chelpers.obj
 0001:0000281e       ?GetFreeNode@?$CAtlList@PAXV?$CElementTraits@PAX@ATL@@@ATL@@AAEXXZ 1000381e f i vfp2cfile.obj
 0001:0000281e       ?GetFreeNode@?$CAtlList@V?$CAutoPtr@VCComCallInfo@@@ATL@@V?$CAutoPtrElementTraits@VCComCallInfo@@@2@@ATL@@AAEXXZ 1000381e f i vfp2casynccom.obj
 0001:0000281e       ?GetFreeNode@?$CAtlList@PAVCThread@@V?$CElementTraits@PAVCThread@@@ATL@@@ATL@@AAEXXZ 1000381e f i vfp2chelpers.obj
 0001:0000285e       ?ReturnNull@@YGXXZ         1000385e f i vfp2cmarshal.obj
 0001:00002872       ?Value2UInt64@@YG_KAAUValue@@@Z 10003872 f i vfp2cmarshal.obj
 0001:000028ea       ??1FoxUInt@@QAE@XZ         100038ea f i vfp2cmarshal.obj
 0001:000028ea       ??1FoxUShort@@QAE@XZ       100038ea f i vfp2cmarshal.obj
 0001:000028ea       ??1FoxInt64@@QAE@XZ        100038ea f i vfp2cfile.obj
 0001:000028ea       ??1FoxLogical@@QAE@XZ      100038ea f i vfp2cmarshal.obj
 0001:000028ea       ??1FoxShort@@QAE@XZ        100038ea f i vfp2cmarshal.obj
 0001:000028ea       ??1FoxDateTime@@QAE@XZ     100038ea f i vfp2cfile.obj
 0001:000028ea       ??1FoxFloat@@QAE@XZ        100038ea f i vfp2cmarshal.obj
 0001:000028ea       ??1FoxInt@@QAE@XZ          100038ea f i vfp2cmarshal.obj
 0001:000028ea       ??1FoxCurrency@@QAE@XZ     100038ea f i vfp2cmarshal.obj
 0001:000028ea       ??1FoxDouble@@QAE@XZ       100038ea f i vfp2cmarshal.obj
 0001:000028ea       ??1FoxDate@@QAE@XZ         100038ea f i vfp2cregistry.obj
 0001:000028ef       ??4FoxArray@@QAEAAV0@E@Z   100038ef f i vfp2cmarshal.obj
 0001:0000292c       ?GoTop@FoxCursor@@QAEHXZ   1000392c f i vfp2cmarshal.obj
 0001:00002951       ?Skip@FoxCursor@@QAEHH@Z   10003951 f i vfp2cmarshal.obj
 0001:00002976       ?RecCount@FoxCursor@@QAEHXZ 10003976 f i vfp2cmarshal.obj
 0001:0000299b       ?Eof@FoxCursor@@QAE_NXZ    1000399b f i vfp2cmarshal.obj
 0001:000029c8       ?StrEqual@@YG_NPAD0@Z      100039c8 f i vfp2codbc.obj
 0001:000029fd       ?IsCharacter@@YG_ND@Z      100039fd f i vfp2codbc.obj
 0001:00002a14       ?ToUpper@@YGDD@Z           10003a14 f i vfp2codbc.obj
 0001:00002a27       ?CheckOptionalParameterLen@@YG_NPAUParamBlk@@H@Z 10003a27 f i vfp2codbc.obj
 0001:00002a3f       ?IsVariableRef@@YG_NAAULocator@@@Z 10003a3f f i vfp2codbc.obj
 0001:00002a52       ?UnlockFreeHandle@@YGXAAUValue@@@Z 10003a52 f i vfp2codbc.obj
 0001:00002a67       ??6FoxObject@@QAEAAV0@K@Z  10003a67 f i vfp2cprint.obj
 0001:00002a9e       ??1PrinterHandle@@QAE@XZ   10003a9e f i vfp2cprint.obj
 0001:00002aac       ??1RasNotifyThread@@QAE@XZ 10003aac f i vfp2cras.obj
 0001:00002ae0       ??_GRasNotifyThread@@QAEPAXI@Z 10003ae0 f i vfp2cras.obj
 0001:00002b01       ?SwapEndian@@YGHH@Z        10003b01 f i vfp2cregistry.obj
 0001:00002b25       ?SwapEndian@@YGIK@Z        10003b25 f i vfp2cregistry.obj
 0001:00002b49       ??6FoxObject@@QAEAAV0@H@Z  10003b49 f i vfp2cregistry.obj
 0001:00002b85       ??6FoxObject@@QAEAAV0@N@Z  10003b85 f i vfp2cregistry.obj
 0001:00002bcd       ??4FoxArray@@QAEAAV0@N@Z   10003bcd f i vfp2cregistry.obj
 0001:00002c11       ??1RegistryKey@@QAE@XZ     10003c11 f i vfp2cregistry.obj
 0001:00002c25       ??1VFP2CTls@@QAE@XZ        10003c25 f i vfp2ctls.obj
 0001:00002c30       ??1UrlDownload@@QAE@XZ     10003c30 f i vfp2curlmon.obj
 0001:00002c6b       ??0UrlDownloadThread@@QAE@AAVCThreadManager@@@Z 10003c6b f i vfp2curlmon.obj
 0001:00002c87       ??1UrlDownloadThread@@QAE@XZ 10003c87 f i vfp2curlmon.obj
 0001:00002cbc       ??_GUrlDownloadThread@@QAEPAXI@Z 10003cbc f i vfp2curlmon.obj
 0001:00002ce0       _Multiply_Int64@20         10003ce0 f   vfp2casmfuncs.obj
 0001:00002d9a       @_Error@4                  10003d9a f   winapims:apierror.obj
 0001:00002da4       @_UserError@4              10003da4 f   winapims:apierror.obj
 0001:00002dae       @_WhToHwnd@4               10003dae f   winapims:apiuint7.obj
 0001:00002db8       @__WFindTitle@8            10003db8 f   winapims:apiuint7.obj
 0001:00002dc6       @_SetObjectProperty@16     10003dc6 f   winapims:apiuint7.obj
 0001:00002dde       @_GetObjectProperty@12     10003dde f   winapims:apiuint7.obj
 0001:00002df2       @_ObjectRelease@4          10003df2 f   winapims:apiuint7.obj
 0001:00002dfc       @_FreeObject@4             10003dfc f   winapims:apiuint7.obj
 0001:00002e06       @ApiTlsShutdown@0          10003e06 f   winapims:apimain.obj
 0001:00002e2a       _DllMain@12                10003e2a f   winapims:apimain.obj
 0001:00002efa       @xxxxWinCall@20            10003efa f   winapims:apimain.obj
 0001:00002f27       @xxxWinCall@16             10003f27 f   winapims:apimain.obj
 0001:00002f4e       @xxWinCall@12              10003f4e f   winapims:apimain.obj
 0001:00002f6f       @xWinCall@8                10003f6f f   winapims:apimain.obj
 0001:000030a0       @_AllocHand@4              100040a0 f   winapims:apimain.obj
 0001:000030a9       @_FreeHand@4               100040a9 f   winapims:apimain.obj
 0001:000030f4       @_HandToPtr@4              100040f4 f   winapims:apimain.obj
 0001:00003142       @_HLock@4                  10004142 f   winapims:apimain.obj
 0001:00003171       @_HUnLock@4                10004171 f   winapims:apimain.obj
 0001:000031a0       @_GetHandSize@4            100041a0 f   winapims:apimain.obj
 0001:000031d5       @_SetHandSize@8            100041d5 f   winapims:apimain.obj
 0001:00003219       @DispatchAPI@4             10004219 f   winapims:apimain.obj
 0001:0000339b       @_RetVal@4                 1000439b f   winapims:apiretrn.obj
 0001:000033a5       @_RetInt@8                 100043a5 f   winapims:apiretrn.obj
 0001:000033c3       @_RetFloat@16              100043c3 f   winapims:apiretrn.obj
 0001:000033e9       @_RetCurrency@12           100043e9 f   winapims:apiretrn.obj
 0001:00003412       @_RetLogical@4             10004412 f   winapims:apiretrn.obj
 0001:00003433       @_RetChar@4                10004433 f   winapims:apiretrn.obj
 0001:0000347a       @_NewVar@12                1000447a f   winapims:apivar.obj
 0001:0000348e       @_Store@8                  1000448e f   winapims:apivar.obj
 0001:0000349c       @_Load@8                   1000449c f   winapims:apivar.obj
 0001:000034aa       @_Execute@4                100044aa f   winapims:apiexec.obj
 0001:000034b4       @_Evaluate@8               100044b4 f   winapims:apiexec.obj
 0001:000034c2       @_Release@4                100044c2 f   winapims:apivar2.obj
 0001:000034cc       @_ALen@8                   100044cc f   winapims:apivar2.obj
 0001:000034da       @_FindVar@12               100044da f   winapims:apivar2.obj
 0001:000034ee       @_NameTableIndex@4         100044ee f   winapims:apivar2.obj
 0001:000034f8       @__WPort@4                 100044f8 f   winapims:apiuint1.obj
 0001:00003502       @__FStat@8                 10004502 f   winapims:apifio.obj
 0001:00003510       @__FIO@16                  10004510 f   winapims:apifio.obj
 0001:00003528       @_FSeek@12                 10004528 f   winapims:apifio2.obj
 0001:0000353c       @_MemoChan@4               1000453c f   winapims:apimemo1.obj
 0001:00003546       @_FindMemo@4               10004546 f   winapims:apimemo1.obj
 0001:00003550       @_MemoSize@4               10004550 f   winapims:apimemo1.obj
 0001:0000355a       @_AllocMemo@8              1000455a f   winapims:apimemo2.obj
 0001:00003568       @_DBReplace@8              10004568 f   winapims:apidrepl.obj
 0001:00003576       @_DBAppend@8               10004576 f   winapims:apidbapp.obj
 0001:00003584       @_DBRecCount@4             10004584 f   winapims:apidbio.obj
 0001:0000358e       @_DBStatus@4               1000458e f   winapims:apidbio.obj
 0001:00003598       @_DBRewind@4               10004598 f   winapims:apidbio.obj
 0001:000035a2       @_DBSkip@8                 100045a2 f   winapims:apidskip.obj
 0001:000035b0       ??1CApiStatic@@QAE@XZ      100045b0 f i winapims:apicsect.obj
 0001:000035e9       @_StrLen@4                 100045e9 f   winapims:apistr.obj
 0001:000035f6       @_StrCpy@8                 100045f6 f   winapims:apistr.obj
 0001:00003602       _URLDownloadToFileA@20     10004602 f   urlmon:urlmon.dll
 0001:00003608       _Heap32ListNext@8          10004608 f   kernel32:KERNEL32.dll
 0001:0000360e       _Heap32Next@4              1000460e f   kernel32:KERNEL32.dll
 0001:00003614       _Process32First@8          10004614 f   kernel32:KERNEL32.dll
 0001:0000361a       _Heap32First@12            1000461a f   kernel32:KERNEL32.dll
 0001:00003620       _Heap32ListFirst@8         10004620 f   kernel32:KERNEL32.dll
 0001:00003626       _Thread32First@8           10004626 f   kernel32:KERNEL32.dll
 0001:0000362c       _Thread32Next@8            1000462c f   kernel32:KERNEL32.dll
 0001:00003632       _Module32First@8           10004632 f   kernel32:KERNEL32.dll
 0001:00003638       _Process32Next@8           10004638 f   kernel32:KERNEL32.dll
 0001:0000363e       _Toolhelp32ReadProcessMemory@20 1000463e f   kernel32:KERNEL32.dll
 0001:00003644       _CreateToolhelp32Snapshot@8 10004644 f   kernel32:KERNEL32.dll
 0001:0000364a       _Module32Next@8            1000464a f   kernel32:KERNEL32.dll
 0001:00003650       _EnumJobsA@32              10004650 f   winspool:WINSPOOL.DRV
 0001:00003656       _EnumFormsA@24             10004656 f   winspool:WINSPOOL.DRV
 0001:0000365c       _ClosePrinter@4            1000465c f   winspool:WINSPOOL.DRV
 0001:00003662       _OpenPrinterA@12           10004662 f   winspool:WINSPOOL.DRV
 0001:00003668       _EnumPrintersA@28          10004668 f   winspool:WINSPOOL.DRV
 0001:0000366e       _VarBstrCmp@16             1000466e f   oleaut32:OLEAUT32.dll
 0001:00003674       _SQLExecute@4              10004674 f   odbc32:ODBC32.dll
 0001:0000367a       _SQLMoreResults@4          1000467a f   odbc32:ODBC32.dll
 0001:00003680       _SQLBindCol@24             10004680 f   odbc32:ODBC32.dll
 0001:00003686       _SQLFreeStmt@8             10004686 f   odbc32:ODBC32.dll
 0001:0000368c       _SQLGetDiagRec@32          1000468c f   odbc32:ODBC32.dll
 0001:00003692       _SQLDrivers@32             10004692 f   odbc32:ODBC32.dll
 0001:00003698       _SQLColAttribute@28        10004698 f   odbc32:ODBC32.dll
 0001:0000369e       _SQLPrepare@12             1000469e f   odbc32:ODBC32.dll
 0001:000036a4       _SQLGetData@24             100046a4 f   odbc32:ODBC32.dll
 0001:000036aa       _SQLSetDescField@20        100046aa f   odbc32:ODBC32.dll
 0001:000036b0       _SQLAllocHandle@12         100046b0 f   odbc32:ODBC32.dll
 0001:000036b6       _SQLFreeHandle@8           100046b6 f   odbc32:ODBC32.dll
 0001:000036bc       _SQLParamData@8            100046bc f   odbc32:ODBC32.dll
 0001:000036c2       _SQLSetDescRec@40          100046c2 f   odbc32:ODBC32.dll
 0001:000036c8       _SQLDataSources@32         100046c8 f   odbc32:ODBC32.dll
 0001:000036ce       _SQLGetStmtAttr@20         100046ce f   odbc32:ODBC32.dll
 0001:000036d4       _SQLDescribeCol@36         100046d4 f   odbc32:ODBC32.dll
 0001:000036da       _SQLBindParameter@40       100046da f   odbc32:ODBC32.dll
 0001:000036e0       _SQLGetInfo@20             100046e0 f   odbc32:ODBC32.dll
 0001:000036e6       _SQLGetConnectAttr@20      100046e6 f   odbc32:ODBC32.dll
 0001:000036ec       _SQLRowCount@8             100046ec f   odbc32:ODBC32.dll
 0001:000036f2       _SQLExecDirect@12          100046f2 f   odbc32:ODBC32.dll
 0001:000036f8       _SQLSetConnectAttr@16      100046f8 f   odbc32:ODBC32.dll
 0001:000036fe       _SQLNumResultCols@8        100046fe f   odbc32:ODBC32.dll
 0001:00003704       _SQLFetch@4                10004704 f   odbc32:ODBC32.dll
 0001:0000370a       _SQLPutData@12             1000470a f   odbc32:ODBC32.dll
 0001:00003710       _SQLConfigDataSource@16    10004710 f   odbccp32:funcload.obj
 0001:00003725       _SQLInstallerError@20      10004725 f   odbccp32:funcload.obj
 0001:00003a29       _ODBC___GetSetupProc@4     10004a29 f   odbccp32:dllload.obj
 0001:00003ae9       ?RemoveAll@?$CSimpleArray@PAUHINSTANCE__@@V?$CSimpleArrayEqualHelper@PAUHINSTANCE__@@@ATL@@@ATL@@QAEXXZ 10004ae9 f i atls:atlbase.obj
 0001:00003b06       ??0_ATL_BASE_MODULE70@ATL@@QAE@XZ 10004b06 f i atls:atlbase.obj
 0001:00003b20       ??1CAtlBaseModule@ATL@@QAE@XZ 10004b20 f   atls:atlbase.obj
 0001:00003b36       ??0CAtlBaseModule@ATL@@QAE@XZ 10004b36 f   atls:atlbase.obj
 0001:00003be6       _free                      10004be6 f   MSVCRT:MSVCR71.dll
 0001:00003bec       ?__ArrayUnwind@@YGXPAXIHP6EX0@Z@Z 10004bec f   MSVCRT:ehvecdtr.obj
 0001:00003c4a       ??_M@YGXPAXIHP6EX0@Z@Z     10004c4a f   MSVCRT:ehvecdtr.obj
 0001:00003caa       __onexit                   10004caa f   MSVCRT:atonexit.obj
 0001:00003cd0       _atexit                    10004cd0 f   MSVCRT:atonexit.obj
 0001:00003ce2       ??_V@YAXPAX@Z              10004ce2 f   MSVCRT:MSVCR71.dll
 0001:00003ce8       ??3@YAXPAX@Z               10004ce8 f   MSVCRT:MSVCR71.dll
 0001:00003cee       ??_Etype_info@@UAEPAXI@Z   10004cee f i MSVCRT:ti_inst.obj
 0001:00003d3a       ??_U@YAPAXI@Z              10004d3a f   MSVCRT:MSVCR71.dll
 0001:00003d40       __purecall                 10004d40 f   MSVCRT:MSVCR71.dll
 0001:00003d46       ??2@YAPAXI@Z               10004d46 f   MSVCRT:MSVCR71.dll
 0001:00003d4c       _memcpy                    10004d4c f   MSVCRT:MSVCR71.dll
 0001:00003d52       ??_L@YGXPAXIHP6EX0@Z1@Z    10004d52 f   MSVCRT:ehvecctr.obj
 0001:00003db4       __CRT_INIT@12              10004db4 f   MSVCRT:crtdll.obj
 0001:00003e72       __DllMainCRTStartup@12     10004e72 f   MSVCRT:crtdll.obj
 0001:00003f56       __setjmp3                  10004f56 f   MSVCRT:MSVCR71.dll
 0001:00003f91       @__security_check_cookie@4 10004f91 f   MSVCRT:secchk.obj
 0001:00003fa0       _memset                    10004fa0 f   MSVCRT:MSVCR71.dll
 0001:00003fa8       __SEH_prolog               10004fa8 f   MSVCRT:sehprolg.obj
 0001:00003fe3       __SEH_epilog               10004fe3 f   MSVCRT:sehprolg.obj
 0001:00003ff4       __except_handler3          10004ff4 f   MSVCRT:MSVCR71.dll
 0001:00003ffa       ?terminate@@YAXXZ          10004ffa f   MSVCRT:MSVCR71.dll
 0001:00004000       ___dllonexit               10005000 f   MSVCRT:MSVCR71.dll
 0001:00004006       ??1type_info@@UAE@XZ       10005006 f   MSVCRT:MSVCR71.dll
 0001:0000400c       __initterm                 1000500c f   MSVCRT:MSVCR71.dll
 0001:00004012       __RTC_Initialize           10005012 f   MSVCRT:initsect.obj
 0001:00004056       __RTC_Terminate            10005056 f   MSVCRT:initsect.obj
 0001:0000409a       ___CppXcptFilter           1000509a f   MSVCRT:MSVCR71.dll
 0001:000040a0       ___security_init_cookie    100050a0 f   MSVCRT:seccinit.obj
 0001:00004106       ___security_error_handler  10005106 f   MSVCRT:MSVCR71.dll
 0001:0000410c       _VFP2C_Destroy_Winsock@4   1000510c f   vfp2cwinsock.obj
 0001:0000411c       _VFP2C_Init_Winsock@0      1000511c f   vfp2cwinsock.obj
 0001:000041ad       _SaveWinsockError@4        100051ad f   vfp2cwinsock.obj
 0001:0000421f       @AIPAddresses@4            1000521f f   vfp2cwinsock.obj
 0001:00004371       @ResolveHostToIp@4         10005371 f   vfp2cwinsock.obj
 0001:000044ec       ?str_charcount@@YGHPADD@Z  100054ec f   vfp2cutil.obj
 0001:00004501       ?str_append@@YGPADPAD0@Z   10005501 f   vfp2cutil.obj
 0001:00004510       ?skip_ws@@YGXPAPAD@Z       10005510 f   vfp2cutil.obj
 0001:000046d6       ?strdblcount@@YGIPBDK@Z    100056d6 f   vfp2cutil.obj
 0001:000046fc       ?strdblnlen@@YGIPBDK@Z     100056fc f   vfp2cutil.obj
 0001:00004729       ?strnlen@@YGIPBDK@Z        10005729 f   vfp2cutil.obj
 0001:00004747       ?UInt64ToString@@YGXPAD_K@Z 10005747 f   vfp2cutil.obj
 0001:00004798       ?Int64ToString@@YGXPAD_J@Z 10005798 f   vfp2cutil.obj
 0001:0000480a       ?DoubleToStr@@YGPADPADNH@Z 1000580a f   vfp2cutil.obj
 0001:000048cc       ?FloatToStr@@YGPADPADMH@Z  100058cc f   vfp2cutil.obj
 0001:00004994       ?BoolToStr@@YGPADPADH@Z    10005994 f   vfp2cutil.obj
 0001:000049b6       ?UInt64ToStr@@YGPADPAD_K@Z 100059b6 f   vfp2cutil.obj
 0001:00004a11       ?Int64ToCurrency@@YGPADPAD_J@Z 10005a11 f   vfp2cutil.obj
 0001:00004b0d       ?Int64ToVarbinary@@YGPADPAD_J@Z 10005b0d f   vfp2cutil.obj
 0001:00004b61       ?Int64ToStr@@YGPADPAD_J@Z  10005b61 f   vfp2cutil.obj
 0001:00004bd8       ?UIntToHex@@YGPADPADI@Z    10005bd8 f   vfp2cutil.obj
 0001:00004c08       ?UIntToStr@@YGPADPADI@Z    10005c08 f   vfp2cutil.obj
 0001:00004c51       ?IntToHex@@YGPADPADH@Z     10005c51 f   vfp2cutil.obj
 0001:00004c8c       ?IntToStr@@YGPADPADH@Z     10005c8c f   vfp2cutil.obj
 0001:00004cd9       ?strend@@YGPADPAD@Z        10005cd9 f   vfp2cutil.obj
 0001:00004ce2       ?ReplicateEx@@YGPADPADDH@Z 10005ce2 f   vfp2cutil.obj
 0001:00004d15       ?AtEx@@YGPADPADDH@Z        10005d15 f   vfp2cutil.obj
 0001:00004d45       ?Alltrim@@YGXPAD@Z         10005d45 f   vfp2cutil.obj
 0001:00004d89       ?GetWordNumN@@YGIPAD0DII@Z 10005d89 f   vfp2cutil.obj
 0001:00004dd7       ?GetWordCount@@YGIPADD@Z   10005dd7 f   vfp2cutil.obj
 0001:00004dfb       ?DoubleToInt64@@YG_JN@Z    10005dfb f   vfp2cutil.obj
 0001:00004e07       ?DoubleToUInt64@@YG_KN@Z   10005e07 f   vfp2cutil.obj
 0001:00004e13       ?DoubelToInt@@YGHN@Z       10005e13 f   vfp2cutil.obj
 0001:00004e1f       ?DoubleToUInt@@YGIN@Z      10005e1f f   vfp2cutil.obj
 0001:00004e2b       ?strncpyex@@YGIPADPBDI@Z   10005e2b f   vfp2cutil.obj
 0001:00004e4c       ?strcpyex@@YGIPADPBD@Z     10005e4c f   vfp2cutil.obj
 0001:00004e5e       ?wstrnlen@@YGIPB_WI@Z      10005e5e f   vfp2cutil.obj
 0001:00004e7c       ?CharPosN@@YGGPBDDG@Z      10005e7c f   vfp2cutil.obj
 0001:00004ea1       ?GetGregorianDate@@YGXJPAG00@Z 10005ea1 f   vfp2cutil.obj
 0001:00004f46       ?CalcJulianDay@@YGJGGG@Z   10005f46 f   vfp2cutil.obj
 0001:00004fb0       ?DateTimeToSystemTimeEx@@YGXPAUValue@@PAU_SYSTEMTIME@@@Z 10005fb0 f   vfp2cutil.obj
 0001:000050e0       ?SystemTimeToDateTimeEx@@YGXPAU_SYSTEMTIME@@PAUValue@@@Z 100060e0 f   vfp2cutil.obj
 0001:00005193       ?DateTimeToFileTime@@YGXPAUValue@@PAU_FILETIME@@@Z 10006193 f   vfp2cutil.obj
 0001:0000524e       ?FileTimeToDateTime@@YGXPAU_FILETIME@@PAUValue@@@Z 1000624e f   vfp2cutil.obj
 0001:000052ca       ?AppendMemo@@YGHPADHHPAJ@Z 100062ca f   vfp2cutil.obj
 0001:000052fe       ?ReplaceMemoEx@@YGHPAULocator@@PADHH@Z 100062fe f   vfp2cutil.obj
 0001:00005348       ?ReplaceMemo@@YGHPAULocator@@PADH@Z 10006348 f   vfp2cutil.obj
 0001:000053ab       ?GetMemoContentN@@YGHPAUValue@@PADHH@Z 100063ab f   vfp2cutil.obj
 0001:000053f0       ?GetMemoContent@@YGHPAUValue@@PAD@Z 100063f0 f   vfp2cutil.obj
 0001:0000542f       ?StoreEx@@YGHPAULocator@@PAUValue@@@Z 1000642f f   vfp2cutil.obj
 0001:00005440       ?FindFoxVarOrField@@YGHPADPAULocator@@@Z 10006440 f   vfp2cutil.obj
 0001:0000546f       ?FindFoxField@@YGHPADPAULocator@@H@Z 1000646f f   vfp2cutil.obj
 0001:000054a0       ?FindFoxVar@@YGHPADPAULocator@@@Z 100064a0 f   vfp2cutil.obj
 0001:000054cf       ?ASubscripts@@YGHPAULocator@@PAH1@Z 100064cf f   vfp2cutil.obj
 0001:00005504       ?match_short@@YGHPAPADPAF@Z 10006504 f   vfp2cutil.obj
 0001:00005577       ?match_int@@YGHPAPADPAH@Z  10006577 f   vfp2cutil.obj
 0001:000055e9       ?match_one_chr@@YGHPAPADPAD1@Z 100065e9 f   vfp2cutil.obj
 0001:0000561e       ?match_chr@@YGHPAPADD@Z    1000661e f   vfp2cutil.obj
 0001:0000563a       ?match_istr@@YGHPAPADPAD@Z 1000663a f   vfp2cutil.obj
 0001:0000567d       ?match_str@@YGHPAPADPAD@Z  1000667d f   vfp2cutil.obj
 0001:000056a5       ?match_quoted_identifier_ex@@YGHPAPADPADH@Z 100066a5 f   vfp2cutil.obj
 0001:000056ed       ?match_quoted_identifier@@YGHPAPADPADH@Z 100066ed f   vfp2cutil.obj
 0001:0000572e       ?match_dotted_identifier@@YGHPAPADPADH@Z 1000672e f   vfp2cutil.obj
 0001:0000579f       ?match_identifier@@YGHPAPADPADH@Z 1000679f f   vfp2cutil.obj
 0001:0000580b       ?skip_atoi@@YGHPAPBD@Z     1000680b f   vfp2cutil.obj
 0001:00005832       ?StringToUInt64@@YG_KPADI@Z 10006832 f   vfp2cutil.obj
 0001:000059c7       ?StringToInt64@@YG_JPADI@Z 100069c7 f   vfp2cutil.obj
 0001:00005b98       ?printfnex@@YGIPADPBDI0@Z  10006b98 f   vfp2cutil.obj
 0001:00005d91       ?printfex@@YGIPADPBD0@Z    10006d91 f   vfp2cutil.obj
 0001:00005ff2       ?sprintfex@@YAIPADPBDZZ    10006ff2 f   vfp2cutil.obj
 0001:00006006       ?UnicodeToAnsiBuf@@YGHPA_WKPADKPAH@Z 10007006 f   vfp2cutil.obj
 0001:0000605e       ?AnsiToUnicodeBuf@@YGHPADKPA_WK@Z 1000705e f   vfp2cutil.obj
 0001:000060ab       ?AnsiToUnicodePtr@@YGHPADKPAPA_WPAH@Z 100070ab f   vfp2cutil.obj
 0001:00006121       ?SystemTimeToDateLiteral@@YGHPAU_SYSTEMTIME@@PADH@Z 10007121 f   vfp2cutil.obj
 0001:000061ee       ?FileTimeToDateLiteral@@YGHPAU_FILETIME@@PADH@Z 100071ee f   vfp2cutil.obj
 0001:00006262       ?DateTimeToSystemTime@@YGHPAUValue@@PAU_SYSTEMTIME@@H@Z 10007262 f   vfp2cutil.obj
 0001:000062d1       ?SystemTimeToDateTime@@YGHPAU_SYSTEMTIME@@PAUValue@@H@Z 100072d1 f   vfp2cutil.obj
 0001:00006343       ?LocalDateTimeToDateTime@@YGXPAUValue@@@Z 10007343 f   vfp2cutil.obj
 0001:000063b1       ?DateTimeToLocalDateTime@@YGXPAUValue@@@Z 100073b1 f   vfp2cutil.obj
 0001:0000641f       ?DateTimeToFileTimeEx@@YGHPAUValue@@PAU_FILETIME@@H@Z 1000741f f   vfp2cutil.obj
 0001:0000646e       ?FileTimeToDateTimeEx@@YGHPAU_FILETIME@@PAUValue@@H@Z 1000746e f   vfp2cutil.obj
 0001:000064b5       ?Zap@@YGHPAD@Z             100074b5 f   vfp2cutil.obj
 0001:000064e4       ?FindFoxVarOrFieldEx@@YGHPADPAULocator@@@Z 100074e4 f   vfp2cutil.obj
 0001:00006594       ?FindFoxFieldEx@@YGHHPAULocator@@H@Z 10007594 f   vfp2cutil.obj
 0001:0000661d       ?FindFoxFieldC@@YGHPADPAULocator@@0@Z 1000761d f   vfp2cutil.obj
 0001:00006699       ?Dimension@@YGHPADKK@Z     10007699 f   vfp2cutil.obj
 0001:000066ea       ?DimensionEx@@YGHPADPAULocator@@KK@Z 100076ea f   vfp2cutil.obj
 0001:00006763       ?GetMemoContentEx@@YGHPAULocator@@PAPADPAH@Z 10007763 f   vfp2cutil.obj
 0001:00006804       ?MemoChan@@YGHHPAH@Z       10007804 f   vfp2cutil.obj
 0001:00006831       ?AllocMemo@@YGHPAULocator@@HPAJ@Z 10007831 f   vfp2cutil.obj
 0001:0000685e       ?Abort@UrlDownload@@QAEXH@Z 1000785e f   vfp2curlmon.obj
 0001:00006862       ?SetAsync@UrlDownload@@QAEX_N@Z 10007862 f   vfp2curlmon.obj
 0001:00006866       ?OnObjectAvailable@UrlDownload@@UAGJABU_GUID@@PAUIUnknown@@@Z 10007866 f   vfp2curlmon.obj
 0001:0000686e       ?OnDataAvailable@UrlDownload@@UAGJKKPAUtagFORMATETC@@PAUtagSTGMEDIUM@@@Z 1000786e f   vfp2curlmon.obj
 0001:00006876       ?GetBindInfo@UrlDownload@@UAGJPAKPAU_tagBINDINFO@@@Z 10007876 f   vfp2curlmon.obj
 0001:0000687b       ?OnLowResource@UrlDownload@@UAGJK@Z 1000787b f   vfp2curlmon.obj
 0001:00006883       ?GetPriority@UrlDownload@@UAGJPAJ@Z 10007883 f   vfp2curlmon.obj
 0001:0000688b       ?OnStartBinding@UrlDownload@@UAGJKPAUIBinding@@@Z 1000788b f   vfp2curlmon.obj
 0001:0000689d       ?Release@UrlDownload@@UAGKXZ 1000789d f   vfp2curlmon.obj
 0001:000068aa       ?AddRef@UrlDownload@@UAGKXZ 100078aa f   vfp2curlmon.obj
 0001:000068b7       ?SignalThreadAbort@UrlDownloadThread@@UAEXXZ 100078b7 f   vfp2curlmon.obj
 0001:000068bf       ?Download@UrlDownload@@QAEJXZ 100078bf f   vfp2curlmon.obj
 0001:000068d2       ?SetCallBack@UrlDownload@@QAEXPAD@Z 100078d2 f   vfp2curlmon.obj
 0001:00006912       ?QueryInterface@UrlDownload@@UAGJABU_GUID@@PAPAX@Z 10007912 f   vfp2curlmon.obj
 0001:0000695d       ?Run@UrlDownloadThread@@UAEKXZ 1000795d f   vfp2curlmon.obj
 0001:00006965       ??0UrlDownload@@QAE@XZ     10007965 f   vfp2curlmon.obj
 0001:00006995       ?SetParams@UrlDownloadThread@@QAEXPAD00@Z 10007995 f   vfp2curlmon.obj
 0001:000069c2       @AbortUrlDownloadToFileEx@4 100079c2 f   vfp2curlmon.obj
 0001:00006a0a       ?OnStopBinding@UrlDownload@@UAGJJPB_W@Z 10007a0a f   vfp2curlmon.obj
 0001:00006a7b       ?OnProgress@UrlDownload@@UAGJKKKPB_W@Z 10007a7b f   vfp2curlmon.obj
 0001:00006b80       ?Release@UrlDownloadThread@@UAEXXZ 10007b80 f   vfp2curlmon.obj
 0001:00006b8d       _VFP2C_Destroy_Urlmon@4    10007b8d f   vfp2curlmon.obj
 0001:00006b9a       _VFP2C_Init_Urlmon@0       10007b9a f   vfp2curlmon.obj
 0001:00006bbe       @UrlDownloadToFileEx@4     10007bbe f   vfp2curlmon.obj
 0001:00006d91       ?FreeGlobalResources@VFP2CTls@@CGXXZ 10007d91 f   vfp2ctls.obj
 0001:00006de6       ?OnUnload@VFP2CTls@@SGXXZ  10007de6 f   vfp2ctls.obj
 0001:00006deb       ??0VFP2CTls@@QAE@XZ        10007deb f   vfp2ctls.obj
 0001:00006e3d       ?Tls@VFP2CTls@@SGAAV1@XZ   10007e3d f   vfp2ctls.obj
 0001:00006e68       ?OnLoad@VFP2CTls@@SGXXZ    10007e68 f   vfp2ctls.obj
 0001:00006e6d       _SNTPTimeToSystemTime@8    10007e6d f   vfp2csntp.obj
 0001:00006ee4       _SystemTimeToSNTPTime@8    10007ee4 f   vfp2csntp.obj
 0001:00006f49       _PacketToSNTPTime@4        10007f49 f   vfp2csntp.obj
 0001:00006f60       _SNTPTimeToPacket@4        10007f60 f   vfp2csntp.obj
 0001:00006f77       _DoubleToSNTPTime@12       10007f77 f   vfp2csntp.obj
 0001:00006fbe       _SNTPTimeToDouble@4        10007fbe f   vfp2csntp.obj
 0001:00007001       @SyncToSNTPServer@4        10008001 f   vfp2csntp.obj
 0001:000074cb       ??1Service@@QAE@XZ         100084cb f   vfp2cservices.obj
 0001:000074df       ??1ServiceManager@@QAE@XZ  100084df f   vfp2cservices.obj
 0001:000074ed       ?Attach@Service@@QAEAAV1@AAUValue@@@Z 100084ed f   vfp2cservices.obj
 0001:00007523       @CloseServiceHandleLib@4   10008523 f   vfp2cservices.obj
 0001:0000758e       ?QueryConfig@Service@@QAEXAAVCBuffer@@@Z 1000858e f   vfp2cservices.obj
 0001:000075ef       ?QueryStatus@Service@@QAEXPAU_SERVICE_STATUS@@@Z 100085ef f   vfp2cservices.obj
 0001:00007630       ?Control@Service@@QAEHK@Z  10008630 f   vfp2cservices.obj
 0001:00007678       ?Start@Service@@QAEHKPAPBDH@Z 10008678 f   vfp2cservices.obj
 0001:00007765       ?Open@Service@@QAEXPAUSC_HANDLE__@@PBDK@Z 10008765 f   vfp2cservices.obj
 0001:000077c3       ??0Service@@QAE@PAUSC_HANDLE__@@PBDK@Z 100087c3 f   vfp2cservices.obj
 0001:000077dd       ?Open@ServiceManager@@QAEXPBD0K@Z 100087dd f   vfp2cservices.obj
 0001:00007827       ??0ServiceManager@@QAE@PBD0K@Z 10008827 f   vfp2cservices.obj
 0001:00007842       @DeleteServiceLib@4        10008842 f   vfp2cservices.obj
 0001:0000798c       @CreateServiceLib@4        1000898c f   vfp2cservices.obj
 0001:00007c25       @AServiceConfig@4          10008c25 f   vfp2cservices.obj
 0001:00007eaf       @AServiceStatus@4          10008eaf f   vfp2cservices.obj
 0001:000080ac       @ControlServiceLib@4       100090ac f   vfp2cservices.obj
 0001:000081ce       @StartServiceLib@4         100091ce f   vfp2cservices.obj
 0001:000083b6       @OpenServiceLib@4          100093b6 f   vfp2cservices.obj
 0001:000084b8       ?StopDependantServices@Service@@QAEXPAUSC_HANDLE__@@@Z 100094b8 f   vfp2cservices.obj
 0001:000085b0       ?WaitForServiceStatus@Service@@QAEHKH@Z 100095b0 f   vfp2cservices.obj
 0001:00008627       ?Continue@Service@@QAEHH@Z 10009627 f   vfp2cservices.obj
 0001:00008695       ?Pause@Service@@QAEHH@Z    10009695 f   vfp2cservices.obj
 0001:00008703       ?Stop@Service@@QAEH_NHPAUSC_HANDLE__@@@Z 10009703 f   vfp2cservices.obj
 0001:00008780       @WaitForServiceStatus@4    10009780 f   vfp2cservices.obj
 0001:000088b6       @ADependentServices@4      100098b6 f   vfp2cservices.obj
 0001:00008c3f       @AServices@4               10009c3f f   vfp2cservices.obj
 0001:00008f9b       @ContinueService@4         10009f9b f   vfp2cservices.obj
 0001:00009101       @PauseService@4            1000a101 f   vfp2cservices.obj
 0001:00009267       @StopServiceLib@4          1000a267 f   vfp2cservices.obj
 0001:000093fd       _NumericLiteralToCurrency@8 1000a3fd f   vfp2codbc.obj
 0001:000094f4       _CurrencyToNumericLiteral@8 1000a4f4 f   vfp2codbc.obj
 0001:000095ad       _CurrencyToNumeric_Struct@8 1000a5ad f   vfp2codbc.obj
 0001:000095e2       _Numeric_StructToCurrency@8 1000a5e2 f   vfp2codbc.obj
 0001:00009631       _DateToTimestamp_Struct@8  1000a631 f   vfp2codbc.obj
 0001:000096e8       _Timestamp_StructToDate@8  1000a6e8 f   vfp2codbc.obj
 0001:00009771       _DateTimeToTimestamp_Struct@8 1000a771 f   vfp2codbc.obj
 0001:0000988c       _Timestamp_StructToDateTime@8 1000a88c f   vfp2codbc.obj
 0001:00009957       _SQLStoreCurrencyByBindingVar@4 1000a957 f   vfp2codbc.obj
 0001:00009984       _SQLStoreCurrencyByBinding@4 1000a984 f   vfp2codbc.obj
 0001:000099b1       _SQLStoreDateTimeByBindingVar@4 1000a9b1 f   vfp2codbc.obj
 0001:000099de       _SQLStoreDateTimeByBinding@4 1000a9de f   vfp2codbc.obj
 0001:00009a0b       _SQLStoreDateByBindingVar@4 1000aa0b f   vfp2codbc.obj
 0001:00009a38       _SQLStoreDateByBinding@4   1000aa38 f   vfp2codbc.obj
 0001:00009a65       _SQLStoreCharByBindingVar@4 1000aa65 f   vfp2codbc.obj
 0001:00009a89       _SQLStoreCharByBinding@4   1000aa89 f   vfp2codbc.obj
 0001:00009aad       _SQLStoreByBindingVar@4    1000aaad f   vfp2codbc.obj
 0001:00009aca       _SQLStoreByBinding@4       1000aaca f   vfp2codbc.obj
 0001:00009ae7       _SQLStoreToVariables@4     1000aae7 f   vfp2codbc.obj
 0001:00009b0c       _SQLExtractInfo@8          1000ab0c f   vfp2codbc.obj
 0001:00009b62       _SQLSaveOutputParameters@4 1000ab62 f   vfp2codbc.obj
 0001:00009ca2       _SQLNumParamsEx@4          1000aca2 f   vfp2codbc.obj
 0001:00009d10       _SQLTypeConvertable@8      1000ad10 f   vfp2codbc.obj
 0001:00009df1       _SQLStoreToCursor@4        1000adf1 f   vfp2codbc.obj
 0001:00009e26       _SQLFixColumnName@4        1000ae26 f   vfp2codbc.obj
 0001:00009e7e       _SQLFindColumn@8           1000ae7e f   vfp2codbc.obj
 0001:00009ec1       _SQLFreeParameterEx@4      1000aec1 f   vfp2codbc.obj
 0001:00009ef3       _SQLFreeColumnBuffers@4    1000aef3 f   vfp2codbc.obj
 0001:00009f3e       _SQLReleaseStatement@12    1000af3e f   vfp2codbc.obj
 0001:0000a0b4       @SQLCancelEx@4             1000b0b4 f   vfp2codbc.obj
 0001:0000a0c7       ?SaveODBCInstallerError@@YGXPAD@Z 1000b0c7 f   vfp2codbc.obj
 0001:0000a133       _SaveODBCError@12          1000b133 f   vfp2codbc.obj
 0001:0000a1a8       _SQLStoreMemoBinaryVar@4   1000b1a8 f   vfp2codbc.obj
 0001:0000a312       _SQLStoreMemoWCharVar@4    1000b312 f   vfp2codbc.obj
 0001:0000a483       _SQLStoreMemoCharVar@4     1000b483 f   vfp2codbc.obj
 0001:0000a5f3       _SQLStoreCurrencyByGetDataVar@4 1000b5f3 f   vfp2codbc.obj
 0001:0000a664       _SQLStoreCurrencyByGetData@4 1000b664 f   vfp2codbc.obj
 0001:0000a6d5       _SQLStoreDateTimeByGetDataVar@4 1000b6d5 f   vfp2codbc.obj
 0001:0000a744       _SQLStoreDateTimeByGetData@4 1000b744 f   vfp2codbc.obj
 0001:0000a7b3       _SQLStoreDateByGetDataVar@4 1000b7b3 f   vfp2codbc.obj
 0001:0000a822       _SQLStoreDateByGetData@4   1000b822 f   vfp2codbc.obj
 0001:0000a891       _SQLStoreCharByGetDataVar@4 1000b891 f   vfp2codbc.obj
 0001:0000a8f9       _SQLStoreCharByGetData@4   1000b8f9 f   vfp2codbc.obj
 0001:0000a961       _SQLStoreByGetDataVar@4    1000b961 f   vfp2codbc.obj
 0001:0000a9c2       _SQLStoreByGetData@4       1000b9c2 f   vfp2codbc.obj
 0001:0000aa23       _SQLFetchToVariables@4     1000ba23 f   vfp2codbc.obj
 0001:0000aa6e       _SQLInfoCallbackOrStore@4  1000ba6e f   vfp2codbc.obj
 0001:0000ab7c       _SQLProgressCallback@12    1000bb7c f   vfp2codbc.obj
 0001:0000ac10       _SQLPutDataEx@4            1000bc10 f   vfp2codbc.obj
 0001:0000ac92       _SQLBindParameterEx@4      1000bc92 f   vfp2codbc.obj
 0001:0000ae75       _SQLBindFieldLocators@8    1000be75 f   vfp2codbc.obj
 0001:0000af16       _SQLCreateCursor@8         1000bf16 f   vfp2codbc.obj
 0001:0000b172       _SQLBindColumnsEx@4        1000c172 f   vfp2codbc.obj
 0001:0000b1d2       _SQLGetMetaData@4          1000c1d2 f   vfp2codbc.obj
 0001:0000b3c1       @SQLSetPropEx@4            1000c3c1 f   vfp2codbc.obj
 0001:0000b672       @SQLGetPropEx@4            1000c672 f   vfp2codbc.obj
 0001:0000b977       @ChangeSQLDataSource@4     1000c977 f   vfp2codbc.obj
 0001:0000ba1c       @DeleteSQLDataSource@4     1000ca1c f   vfp2codbc.obj
 0001:0000bb28       @CreateSQLDataSource@4     1000cb28 f   vfp2codbc.obj
 0001:0000bbc8       _SQLFetchToCursor@8        1000cbc8 f   vfp2codbc.obj
 0001:0000bc7f       _SQLAllocStatement@12      1000cc7f f   vfp2codbc.obj
 0001:0000c11a       _SQLStoreMemoBinary@4      1000d11a f   vfp2codbc.obj
 0001:0000c226       _SQLStoreMemoWChar@4       1000d226 f   vfp2codbc.obj
 0001:0000c342       _SQLStoreMemoChar@4        1000d342 f   vfp2codbc.obj
 0001:0000c45e       _SQLEvaluateParams@4       1000d45e f   vfp2codbc.obj
 0001:0000cb51       _SQLParseParamSchema@4     1000db51 f   vfp2codbc.obj
 0001:0000ce68       _SQLExtractParamsAndRewriteStatement@8 1000de68 f   vfp2codbc.obj
 0001:0000cf8f       _SQLBindVariableLocatorsEx@4 1000df8f f   vfp2codbc.obj
 0001:0000cfd8       _SQLBindVariableLocators@4 1000dfd8 f   vfp2codbc.obj
 0001:0000d0e4       _SQLParseCursorSchemaEx@8  1000e0e4 f   vfp2codbc.obj
 0001:0000d30c       _SQLParseCursorSchema@4    1000e30c f   vfp2codbc.obj
 0001:0000d5fc       _SQLPrepareColumnBindings@4 1000e5fc f   vfp2codbc.obj
 0001:0000e665       _VFP2C_Init_Odbc@0         1000f665 f   vfp2codbc.obj
 0001:0000e6c8       @SQLPrepareEx@4            1000f6c8 f   vfp2codbc.obj
 0001:0000e7fb       @SQLExecEx@4               1000f7fb f   vfp2codbc.obj
 0001:0000edf5       @ASQLDrivers@4             1000fdf5 f   vfp2codbc.obj
 0001:0000ef8c       @ASQLDataSources@4         1000ff8c f   vfp2codbc.obj
 0001:0000f14b       ??1NetApiBuffer@@QAE@XZ    1001014b f   vfp2cnetapi.obj
 0001:0000f159       _VFP2C_Init_Netapi@0       10010159 f   vfp2cnetapi.obj
 0001:0000f221       @ANetServers@4             10010221 f   vfp2cnetapi.obj
 0001:0000f56b       @ANetFiles@4               1001056b f   vfp2cnetapi.obj
 0001:0000f816       _TimeOfDayInfoToDateTime@8 10010816 f   vfp2cnetapi.obj
 0001:0000f926       @GetServerTime@4           10010926 f   vfp2cnetapi.obj
 0001:0000fa64       _VFP2C_Destroy_Marshal@4   10010a64 f   vfp2cmarshal.obj
 0001:0000fa65       @SizeOfMem@4               10010a65 f   vfp2cmarshal.obj
 0001:0000fa89       @WritePWChar@4             10010a89 f   vfp2cmarshal.obj
 0001:0000fad9       _Win32HeapExceptionHandler@4 10010ad9 f   vfp2cmarshal.obj
 0001:0000fb3a       @ReadBytes@4               10010b3a f   vfp2cmarshal.obj
 0001:0000fba2       @ReadCharArray@4           10010ba2 f   vfp2cmarshal.obj
 0001:0000fc03       @ReadPCString@4            10010c03 f   vfp2cmarshal.obj
 0001:0000fc42       @ReadCString@4             10010c42 f   vfp2cmarshal.obj
 0001:0000fc58       @ReadPChar@4               10010c58 f   vfp2cmarshal.obj
 0001:0000fcc3       @ReadChar@4                10010cc3 f   vfp2cmarshal.obj
 0001:0000fd16       @ReadPPointer@4            10010d16 f   vfp2cmarshal.obj
 0001:0000fd3c       @ReadPointer@4             10010d3c f   vfp2cmarshal.obj
 0001:0000fd57       @ReadPLogical@4            10010d57 f   vfp2cmarshal.obj
 0001:0000fd7a       @ReadLogical@4             10010d7a f   vfp2cmarshal.obj
 0001:0000fd92       @ReadPDouble@4             10010d92 f   vfp2cmarshal.obj
 0001:0000fdbb       @ReadDouble@4              10010dbb f   vfp2cmarshal.obj
 0001:0000fdd9       @ReadPFloat@4              10010dd9 f   vfp2cmarshal.obj
 0001:0000fe01       @ReadFloat@4               10010e01 f   vfp2cmarshal.obj
 0001:0000fe1e       @ReadPUInt64@4             10010e1e f   vfp2cmarshal.obj
 0001:0000fe69       @ReadUInt64@4              10010e69 f   vfp2cmarshal.obj
 0001:0000fea9       @ReadPInt64@4              10010ea9 f   vfp2cmarshal.obj
 0001:0000fef4       @ReadInt64@4               10010ef4 f   vfp2cmarshal.obj
 0001:0000ff34       @ReadPUInt@4               10010f34 f   vfp2cmarshal.obj
 0001:0000ff57       @ReadUInt@4                10010f57 f   vfp2cmarshal.obj
 0001:0000ff6f       @ReadPInt@4                10010f6f f   vfp2cmarshal.obj
 0001:0000ff95       @ReadInt@4                 10010f95 f   vfp2cmarshal.obj
 0001:0000ffb0       @ReadPUShort@4             10010fb0 f   vfp2cmarshal.obj
 0001:0000ffd7       @ReadUShort@4              10010fd7 f   vfp2cmarshal.obj
 0001:0000fff3       @ReadPShort@4              10010ff3 f   vfp2cmarshal.obj
 0001:0001001a       @ReadShort@4               1001101a f   vfp2cmarshal.obj
 0001:00010036       @ReadPUInt8@4              10011036 f   vfp2cmarshal.obj
 0001:0001005d       @ReadUInt8@4               1001105d f   vfp2cmarshal.obj
 0001:00010079       @ReadPInt8@4               10011079 f   vfp2cmarshal.obj
 0001:000100a0       @ReadInt8@4                100110a0 f   vfp2cmarshal.obj
 0001:000100bc       @WriteBytes@4              100110bc f   vfp2cmarshal.obj
 0001:00010106       @WriteCharArray@4          10011106 f   vfp2cmarshal.obj
 0001:0001017f       @WriteGPCString@4          1001117f f   vfp2cmarshal.obj
 0001:00010274       @WriteWChar@4              10011274 f   vfp2cmarshal.obj
 0001:000102ca       @WritePChar@4              100112ca f   vfp2cmarshal.obj
 0001:000102f2       @WriteChar@4               100112f2 f   vfp2cmarshal.obj
 0001:00010313       @WritePPointer@4           10011313 f   vfp2cmarshal.obj
 0001:00010338       @WritePointer@4            10011338 f   vfp2cmarshal.obj
 0001:00010357       @WritePLogical@4           10011357 f   vfp2cmarshal.obj
 0001:00010374       @WriteLogical@4            10011374 f   vfp2cmarshal.obj
 0001:0001038b       @WritePDouble@4            1001138b f   vfp2cmarshal.obj
 0001:000103a8       @WriteDouble@4             100113a8 f   vfp2cmarshal.obj
 0001:000103bf       @WritePFloat@4             100113bf f   vfp2cmarshal.obj
 0001:000103dc       @WriteFloat@4              100113dc f   vfp2cmarshal.obj
 0001:000103f3       @WritePUInt64@4            100113f3 f   vfp2cmarshal.obj
 0001:00010457       @WriteUInt64@4             10011457 f   vfp2cmarshal.obj
 0001:000104b4       @WritePInt64@4             100114b4 f   vfp2cmarshal.obj
 0001:00010518       @WriteInt64@4              10011518 f   vfp2cmarshal.obj
 0001:00010575       @WritePUInt@4              10011575 f   vfp2cmarshal.obj
 0001:0001059a       @WriteUInt@4               1001159a f   vfp2cmarshal.obj
 0001:000105b9       @WritePInt@4               100115b9 f   vfp2cmarshal.obj
 0001:000105d6       @WriteInt@4                100115d6 f   vfp2cmarshal.obj
 0001:000105ed       @WritePUShort@4            100115ed f   vfp2cmarshal.obj
 0001:0001060c       @WriteUShort@4             1001160c f   vfp2cmarshal.obj
 0001:00010625       @WritePShort@4             10011625 f   vfp2cmarshal.obj
 0001:00010644       @WriteShort@4              10011644 f   vfp2cmarshal.obj
 0001:0001065d       @WritePUInt8@4             1001165d f   vfp2cmarshal.obj
 0001:0001067a       @WriteUInt8@4              1001167a f   vfp2cmarshal.obj
 0001:00010691       @WritePInt8@4              10011691 f   vfp2cmarshal.obj
 0001:000106ae       @WriteInt8@4               100116ae f   vfp2cmarshal.obj
 0001:000106c5       @UnlockHGlobal@4           100116c5 f   vfp2cmarshal.obj
 0001:0001070c       @LockHGlobal@4             1001170c f   vfp2cmarshal.obj
 0001:00010746       @ReAllocHGlobal@4          10011746 f   vfp2cmarshal.obj
 0001:00010793       @FreeHGlobal@4             10011793 f   vfp2cmarshal.obj
 0001:000107c8       @AllocHGlobal@4            100117c8 f   vfp2cmarshal.obj
 0001:00010811       @FreePMem@4                10011811 f   vfp2cmarshal.obj
 0001:00010854       @FreeMem@4                 10011854 f   vfp2cmarshal.obj
 0001:00010891       @ReadWCharArray@4          10011891 f   vfp2cmarshal.obj
 0001:00010946       @ReadPWString@4            10011946 f   vfp2cmarshal.obj
 0001:00010a12       @ReadWString@4             10011a12 f   vfp2cmarshal.obj
 0001:00010ac7       @WriteWCharArray@4         10011ac7 f   vfp2cmarshal.obj
 0001:00010b55       @FreeRefArray@4            10011b55 f   vfp2cmarshal.obj
 0001:00010bdc       _VFP2C_Init_Marshal@0      10011bdc f   vfp2cmarshal.obj
 0001:00010c59       @MarshalCArray2Cursor@4    10011c59 f   vfp2cmarshal.obj
 0001:00011648       @MarshalCursor2CArray@4    10012648 f   vfp2cmarshal.obj
 0001:000120f8       @MarshalCArray2FoxArray@4  100130f8 f   vfp2cmarshal.obj
 0001:00012928       @MarshalFoxArray2CArray@4  10013928 f   vfp2cmarshal.obj
 0001:000132f4       @WritePWString@4           100142f4 f   vfp2cmarshal.obj
 0001:0001344e       @WriteWString@4            1001444e f   vfp2cmarshal.obj
 0001:0001354e       @WritePCString@4           1001454e f   vfp2cmarshal.obj
 0001:00013674       @WriteCString@4            10014674 f   vfp2cmarshal.obj
 0001:00013732       @AMemBlocks@4              10014732 f   vfp2cmarshal.obj
 0001:00013890       @CompactMem@4              10014890 f   vfp2cmarshal.obj
 0001:000138b2       @ValidateMem@4             100148b2 f   vfp2cmarshal.obj
 0001:000138e3       @ReAllocMem@4              100148e3 f   vfp2cmarshal.obj
 0001:0001396b       @AllocMemTo@4              1001496b f   vfp2cmarshal.obj
 0001:000139fa       @AllocMem@4                100149fa f   vfp2cmarshal.obj
 0001:00013a6a       _Binary2Mac@8              10014a6a f   vfp2ciphelper.obj
 0001:00013ab5       ?Status@IcmpFile@@QAEHXZ   10014ab5 f   vfp2ciphelper.obj
 0001:00013abc       ?RoundTripTime@IcmpFile@@QAEHXZ 10014abc f   vfp2ciphelper.obj
 0001:00013ac3       ?Address@IcmpFile@@QAEPADXZ 10014ac3 f   vfp2ciphelper.obj
 0001:00013acf       ?ValidData@IcmpFile@@QAE_NXZ 10014acf f   vfp2ciphelper.obj
 0001:00013af7       ?Ping@IcmpFile@@QAE_NJ@Z   10014af7 f   vfp2ciphelper.obj
 0001:00013b2f       ?SetOptions@IcmpFile@@QAEXEEKG_N@Z 10014b2f f   vfp2ciphelper.obj
 0001:00013b99       ??1IcmpFile@@QAE@XZ        10014b99 f   vfp2ciphelper.obj
 0001:00013be3       _VFP2C_Init_IpHelper@0     10014be3 f   vfp2ciphelper.obj
 0001:00013cd0       ??0IcmpFile@@QAE@XZ        10014cd0 f   vfp2ciphelper.obj
 0001:00013d4a       @IcmpPing@4                10014d4a f   vfp2ciphelper.obj
 0001:00014089       @Ip2MacAddress@4           10015089 f   vfp2ciphelper.obj
 0001:000141c1       ?WaitForThreadShutdown@CThread@@QAEXK@Z 100151c1 f   vfp2chelpers.obj
 0001:000141d1       ?WaitForThreadShutdown@CThread@@QAEXXZ 100151d1 f   vfp2chelpers.obj
 0001:000141dd       ?Leave@CCriticalSection@@QAEXXZ 100151dd f   vfp2chelpers.obj
 0001:000141e3       ?Enter@CCriticalSection@@QAEXXZ 100151e3 f   vfp2chelpers.obj
 0001:000141e9       ?Initialized@CCriticalSection@@QAE_NXZ 100151e9 f   vfp2chelpers.obj
 0001:000141ed       ??4RegistryKey@@QAEAAV0@PAUHKEY__@@@Z 100151ed f   vfp2chelpers.obj
 0001:0001420f       ?Detach@CBuffer@@QAEXAAV1@@Z 1001520f f   vfp2chelpers.obj
 0001:00014221       ?Size@CBuffer@@QAEXI@Z     10015221 f   vfp2chelpers.obj
 0001:00014259       ??1CBuffer@@QAE@XZ         10015259 f   vfp2chelpers.obj
 0001:00014267       ??0CBuffer@@QAE@I@Z        10015267 f   vfp2chelpers.obj
 0001:00014294       ??8CStr@@QBE_NPBD@Z        10015294 f   vfp2chelpers.obj
 0001:000142cb       ?Strdup@CStr@@QBEPADXZ     100152cb f   vfp2chelpers.obj
 0001:000142f7       ?IsWildcardPath@CStr@@QBE_NXZ 100152f7 f   vfp2chelpers.obj
 0001:0001431f       ?Justpath@CStr@@QAEAAV1@XZ 1001531f f   vfp2chelpers.obj
 0001:0001433e       ?Size@CStr@@QAEXI@Z        1001533e f   vfp2chelpers.obj
 0001:000143da       ??1CStr@@QAE@XZ            100153da f   vfp2chelpers.obj
 0001:000143e8       ??0CStr@@QAE@I@Z           100153e8 f   vfp2chelpers.obj
 0001:0001441c       ?Init@COs@@SGXXZ           1001541c f   vfp2chelpers.obj
 0001:00014658       ?AbortThread@CThreadManager@@QAE_NPAVCThread@@@Z 10015658 f   vfp2chelpers.obj
 0001:00014695       ?LeaveCriticalSection@CThreadManager@@QAEXXZ 10015695 f   vfp2chelpers.obj
 0001:0001469b       ?EnterCriticalSection@CThreadManager@@QAEXXZ 1001569b f   vfp2chelpers.obj
 0001:000146a1       ?Initialized@CThreadManager@@QAE_NXZ 100156a1 f   vfp2chelpers.obj
 0001:000146a5       ?ThreadProc@CThread@@SGKPAX@Z 100156a5 f   vfp2chelpers.obj
 0001:000146da       ??YCStr@@QAEAAV0@PBD@Z     100156da f   vfp2chelpers.obj
 0001:00014728       ??YCStr@@QAEAAV0@ABV0@@Z   10015728 f   vfp2chelpers.obj
 0001:00014767       ??4CStr@@QAEAAV0@PBD@Z     10015767 f   vfp2chelpers.obj
 0001:000147ad       ??4CStr@@QAEAAV0@ABV0@@Z   100157ad f   vfp2chelpers.obj
 0001:000147dd       ?RegValueToPropertyName@CStr@@QAEAAV1@XZ 100157dd f   vfp2chelpers.obj
 0001:0001486a       ?AddBsWc@CStr@@QAEAAV1@XZ  1001586a f   vfp2chelpers.obj
 0001:000148d7       ?AddBs@CStr@@QAEAAV1@XZ    100158d7 f   vfp2chelpers.obj
 0001:0001490b       ?AddThread@CThreadManager@@QAEXPAVCThread@@@Z 1001590b f   vfp2chelpers.obj
 0001:0001492b       ?AddLastPath@CStr@@QAEAAV1@PBD@Z 1001592b f   vfp2chelpers.obj
 0001:00014998       ?RemoveThread@CThreadManager@@QAEXPAVCThread@@@Z 10015998 f   vfp2chelpers.obj
 0001:000149c5       ??1CThread@@QAE@XZ         100159c5 f   vfp2chelpers.obj
 0001:000149e6       ?Format@CStr@@QAAIPBDZZ    100159e6 f   vfp2chelpers.obj
 0001:00014c23       ?Release@CThread@@UAEXXZ   10015c23 f   vfp2chelpers.obj
 0001:00014c38       ?StartThread@CThread@@QAEXXZ 10015c38 f   vfp2chelpers.obj
 0001:00014c9a       ?Initialize@CCriticalSection@@QAE_NK@Z 10015c9a f   vfp2chelpers.obj
 0001:00014ccd       ?SetValue@RegistryKey@@QAEXPBDPAEKK@Z 10015ccd f   vfp2chelpers.obj
 0001:00014d13       ?QueryValue@RegistryKey@@QAEXPADPAEPAK2@Z 10015d13 f   vfp2chelpers.obj
 0001:00014d74       ?QueryValueInfo@RegistryKey@@QAEKPADAAK@Z 10015d74 f   vfp2chelpers.obj
 0001:00014dc0       ?EnumNextValue@RegistryKey@@QAE_NPADPAKPAE11@Z 10015dc0 f   vfp2chelpers.obj
 0001:00014e32       ?EnumFirstValue@RegistryKey@@QAE_NPADPAKPAE11@Z 10015e32 f   vfp2chelpers.obj
 0001:00014ea1       ?EnumNextKey@RegistryKey@@QAE_NPADPAK01PAU_FILETIME@@@Z 10015ea1 f   vfp2chelpers.obj
 0001:00014eff       ?EnumFirstKey@RegistryKey@@QAE_NPADPAK01PAU_FILETIME@@@Z 10015eff f   vfp2chelpers.obj
 0001:00014f5b       ?QueryInfo@RegistryKey@@QAEXPADPAK1111111PAU_FILETIME@@@Z 10015f5b f   vfp2chelpers.obj
 0001:00014fc3       ?Delete@RegistryKey@@QAE_NPAUHKEY__@@PBD_N@Z 10015fc3 f   vfp2chelpers.obj
 0001:0001500c       ?OpenSubKey@RegistryKey@@QAEPAUHKEY__@@PBDKK@Z 1001600c f   vfp2chelpers.obj
 0001:00015057       ?Open@RegistryKey@@QAEXPAUHKEY__@@PBDKK@Z 10016057 f   vfp2chelpers.obj
 0001:000150c2       ?Create@RegistryKey@@QAE_NPAUHKEY__@@PBDPADKK@Z 100160c2 f   vfp2chelpers.obj
 0001:00015132       ?ShutdownThreads@CThreadManager@@QAEXXZ 10016132 f   vfp2chelpers.obj
 0001:00015183       ?Initialize@CThreadManager@@QAE_NXZ 10016183 f   vfp2chelpers.obj
 0001:0001518a       ?BigEndianWideCharToMultiByte@@YGXPA_WIPADI@Z 1001618a f   vfp2cfont.obj
 0001:000151c5       ?GetFontNameRecord@@YGPAU_TT_NAME_RECORD@@PAU1@GGGG@Z 100161c5 f   vfp2cfont.obj
 0001:00015203       @AFontInfo@4               10016203 f   vfp2cfont.obj
 0001:00015d0e       _MapFileAccessFlags@24     10016d0e f   vfp2cfile.obj
 0001:00015d6d       _FileExists@4              10016d6d f   vfp2cfile.obj
 0001:00015dab       _AdirExFilter_Exact@8      10016dab f   vfp2cfile.obj
 0001:00015dbb       _AdirExFilter_None@8       10016dbb f   vfp2cfile.obj
 0001:00015dcb       _AdirExFilter_One@8        10016dcb f   vfp2cfile.obj
 0001:00015dde       _AdirExFilter_All@8        10016dde f   vfp2cfile.obj
 0001:00015df2       _VFP2C_Destroy_File@4      10016df2 f   vfp2cfile.obj
 0001:00015e1b       ?IsFakeDir@FileSearch@@QBE_NXZ 10016e1b f   vfp2cfile.obj
 0001:00015e4e       ??1VolumeMountPointSearch@@QAE@XZ 10016e4e f   vfp2cfile.obj
 0001:00015e94       ??1VolumeSearch@@QAE@XZ    10016e94 f   vfp2cfile.obj
 0001:00015eaa       @FUnlockFileEx@4           10016eaa f   vfp2cfile.obj
 0001:00015f89       @FLockFileEx@4             10016f89 f   vfp2cfile.obj
 0001:0001607d       @FUnlockFile@4             1001707d f   vfp2cfile.obj
 0001:0001614a       @FLockFile@4               1001714a f   vfp2cfile.obj
 0001:00016217       @FFlushEx@4                10017217 f   vfp2cfile.obj
 0001:0001624c       @FChSizeEx@4               1001724c f   vfp2cfile.obj
 0001:000163cc       @FEoFEx@4                  100173cc f   vfp2cfile.obj
 0001:000164dd       @FSeekEx@4                 100174dd f   vfp2cfile.obj
 0001:000165ac       @FPutsEx@4                 100175ac f   vfp2cfile.obj
 0001:00016680       @FGetsEx@4                 10017680 f   vfp2cfile.obj
 0001:000167c8       @FWriteEx@4                100177c8 f   vfp2cfile.obj
 0001:00016889       @FReadEx@4                 10017889 f   vfp2cfile.obj
 0001:00016913       @FCloseEx@4                10017913 f   vfp2cfile.obj
 0001:0001699e       _CompareFileTimesEx@8      1001799e f   vfp2cfile.obj
 0001:00016ab8       _PathIsSameVolume@8        10017ab8 f   vfp2cfile.obj
 0001:00016b5d       _RemoveReadOnlyAttribW@8   10017b5d f   vfp2cfile.obj
 0001:00016bc8       _RemoveReadOnlyAttrib@8    10017bc8 f   vfp2cfile.obj
 0001:00016c33       _DeleteFileExExW@8         10017c33 f   vfp2cfile.obj
 0001:00016c7a       _DeleteFileExEx@8          10017c7a f   vfp2cfile.obj
 0001:00016cc1       _RemoveDirectoryEx@4       10017cc1 f   vfp2cfile.obj
 0001:00016d00       _CreateDirectoryExEx@4     10017d00 f   vfp2cfile.obj
 0001:00016d4d       @ExpandEnvironmentStringsLib@4 10017d4d f   vfp2cfile.obj
 0001:00016e53       @GetSystemDirectoryLib@4   10017e53 f   vfp2cfile.obj
 0001:00016ee7       @GetWindowsDirectoryLib@4  10017ee7 f   vfp2cfile.obj
 0001:00016f7b       @SHRenameFiles@4           10017f7b f   vfp2cfile.obj
 0001:00017092       @SHMoveFiles@4             10018092 f   vfp2cfile.obj
 0001:0001719f       @SHDeleteFiles@4           1001819f f   vfp2cfile.obj
 0001:00017282       @SHCopyFiles@4             10018282 f   vfp2cfile.obj
 0001:00017390       @SHSpecialFolder@4         10018390 f   vfp2cfile.obj
 0001:000174ac       @CompareFileTimes@4        100184ac f   vfp2cfile.obj
 0001:00017540       _CopyFileProgress@16       10018540 f   vfp2cfile.obj
 0001:000177f7       _MoveFileProgress@24       100187f7 f   vfp2cfile.obj
 0001:00017866       @MoveFileExLib@4           10018866 f   vfp2cfile.obj
 0001:000179bf       @CopyFileExLib@4           100189bf f   vfp2cfile.obj
 0001:00017af4       @GetShortPathNameLib@4     10018af4 f   vfp2cfile.obj
 0001:00017bb3       @GetLongPathNameLib@4      10018bb3 f   vfp2cfile.obj
 0001:00017c72       @GetFileOwner@4            10018c72 f   vfp2cfile.obj
 0001:00017ee6       @SetFileAttributesLib@4    10018ee6 f   vfp2cfile.obj
 0001:00017f7c       @GetFileAttributesLib@4    10018f7c f   vfp2cfile.obj
 0001:00018010       @GetFileSizeLib@4          10019010 f   vfp2cfile.obj
 0001:00018135       ?FindNext@VolumeMountPointSearch@@QAE_NXZ 10019135 f   vfp2cfile.obj
 0001:0001819c       ?FindFirst@VolumeMountPointSearch@@QAE_NPAD@Z 1001919c f   vfp2cfile.obj
 0001:00018202       ?FindNext@VolumeSearch@@QAE_NXZ 10019202 f   vfp2cfile.obj
 0001:00018269       ?FindFirst@VolumeSearch@@QAE_NXZ 10019269 f   vfp2cfile.obj
 0001:000182c4       ?FindNext@FileSearch@@QAE_NXZ 100192c4 f   vfp2cfile.obj
 0001:00018324       ?FindFirst@FileSearch@@QAE_NPAD@Z 10019324 f   vfp2cfile.obj
 0001:00018376       @AFHandlesEx@4             10019376 f   vfp2cfile.obj
 0001:0001841e       @FOpenEx@4                 1001941e f   vfp2cfile.obj
 0001:0001859f       @FCreateEx@4               1001959f f   vfp2cfile.obj
 0001:0001871a       _DeleteDirectoryEx@4       1001971a f   vfp2cfile.obj
 0001:0001887e       @AVolumeInformation@4      1001987e f   vfp2cfile.obj
 0001:00018a2b       @AVolumePaths@4            10019a2b f   vfp2cfile.obj
 0001:00018c24       @ADriveInfo@4              10019c24 f   vfp2cfile.obj
 0001:00018e5a       _GetFileNameCallback@16    10019e5a f   vfp2cfile.obj
 0001:00018ef9       _SHBrowseCallback@16       10019ef9 f   vfp2cfile.obj
 0001:00018f97       @DeleteDirectory@4         10019f97 f   vfp2cfile.obj
 0001:00018fef       @DeleteFileEx@4            10019fef f   vfp2cfile.obj
 0001:000190ad       @AVolumeMountPoints@4      1001a0ad f   vfp2cfile.obj
 0001:0001917f       @AVolumes@4                1001a17f f   vfp2cfile.obj
 0001:00019232       @GetSaveFileNameLib@4      1001a232 f   vfp2cfile.obj
 0001:00019604       @GetOpenFileNameLib@4      1001a604 f   vfp2cfile.obj
 0001:000199da       @SHBrowseFolder@4          1001a9da f   vfp2cfile.obj
 0001:00019ced       @SetFileTimes@4            1001aced f   vfp2cfile.obj
 0001:0001a01f       @GetFileTimes@4            1001b01f f   vfp2cfile.obj
 0001:0001a281       @AFileAttributesEx@4       1001b281 f   vfp2cfile.obj
 0001:0001a522       @AFileAttributes@4         1001b522 f   vfp2cfile.obj
 0001:0001a701       _ADirectoryInfoSubRoutine@8 1001b701 f   vfp2cfile.obj
 0001:0001a867       @ADirectoryInfo@4          1001b867 f   vfp2cfile.obj
 0001:0001a9af       @ADirEx@4                  1001b9af f   vfp2cfile.obj
 0001:0001b0a1       ?Refresh@TimeZoneInfo@@AAEXXZ 1001c0a1 f   vfp2ccppapi.obj
 0001:0001b105       ??1TimeZoneInfo@@AAE@XZ    1001c105 f   vfp2ccppapi.obj
 0001:0001b137       ?Attach@FoxCursor@@QAEAAV1@HPAD@Z 1001c137 f   vfp2ccppapi.obj
 0001:0001b1d9       ??1FoxCursor@@QAE@XZ       1001c1d9 f   vfp2ccppapi.obj
 0001:0001b1e8       ?FindArray@FoxArray@@AAE_NXZ 1001c1e8 f   vfp2ccppapi.obj
 0001:0001b20c       ?Init@FoxArray@@AAEXXZ     1001c20c f   vfp2ccppapi.obj
 0001:0001b234       ??0FoxArray@@QAE@XZ        1001c234 f   vfp2ccppapi.obj
 0001:0001b239       ?Read@FoxMemo@@QAEPADAAI@Z 1001c239 f   vfp2ccppapi.obj
 0001:0001b29f       ?Append@FoxMemo@@QAEXPADI@Z 1001c29f f   vfp2ccppapi.obj
 0001:0001b2e3       ??1FoxMemo@@QAE@XZ         1001c2e3 f   vfp2ccppapi.obj
 0001:0001b2f2       ??0FoxMemo@@QAE@XZ         1001c2f2 f   vfp2ccppapi.obj
 0001:0001b308       ?DateTimeToFileTime@FoxDateTime@@AAEXAAU_FILETIME@@@Z 1001c308 f   vfp2ccppapi.obj
 0001:0001b3c3       ?DateTimeToSystemTime@FoxDateTime@@AAEXAAU_SYSTEMTIME@@@Z 1001c3c3 f   vfp2ccppapi.obj
 0001:0001b4dd       ?FileTimeToDateTime@FoxDateTime@@AAEXABU_FILETIME@@@Z 1001c4dd f   vfp2ccppapi.obj
 0001:0001b550       ?SystemTimeToDateTime@FoxDateTime@@AAEXABU_SYSTEMTIME@@@Z 1001c550 f   vfp2ccppapi.obj
 0001:0001b603       ??BFoxDateTime@@QAE?AU_FILETIME@@XZ 1001c603 f   vfp2ccppapi.obj
 0001:0001b621       ??BFoxDateTime@@QAE?AU_SYSTEMTIME@@XZ 1001c621 f   vfp2ccppapi.obj
 0001:0001b644       ??4FoxDateTime@@QAEAAV0@ABU_FILETIME@@@Z 1001c644 f   vfp2ccppapi.obj
 0001:0001b650       ??4FoxDateTime@@QAEAAV0@ABU_SYSTEMTIME@@@Z 1001c650 f   vfp2ccppapi.obj
 0001:0001b660       ?DateToFileTime@FoxDate@@AAEXAAU_FILETIME@@@Z 1001c660 f   vfp2ccppapi.obj
 0001:0001b6cd       ?DateToSystemTime@FoxDate@@AAEXAAU_SYSTEMTIME@@@Z 1001c6cd f   vfp2ccppapi.obj
 0001:0001b796       ?FileTimeToDate@FoxDate@@AAEXABU_FILETIME@@@Z 1001c796 f   vfp2ccppapi.obj
 0001:0001b7f1       ?SystemTimeToDate@FoxDate@@AAEXABU_SYSTEMTIME@@@Z 1001c7f1 f   vfp2ccppapi.obj
 0001:0001b87a       ??BFoxDate@@QAE?AU_FILETIME@@XZ 1001c87a f   vfp2ccppapi.obj
 0001:0001b898       ??BFoxDate@@QAE?AU_SYSTEMTIME@@XZ 1001c898 f   vfp2ccppapi.obj
 0001:0001b8b8       ??4FoxDate@@QAEAAV0@ABU_FILETIME@@@Z 1001c8b8 f   vfp2ccppapi.obj
 0001:0001b8c4       ??4FoxDate@@QAEAAV0@ABU_SYSTEMTIME@@@Z 1001c8c4 f   vfp2ccppapi.obj
 0001:0001b8d4       ?Detach@FoxWString@@QAEPA_WXZ 1001c8d4 f   vfp2ccppapi.obj
 0001:0001b8dc       ?Duplicate@FoxWString@@QAEPA_WXZ 1001c8dc f   vfp2ccppapi.obj
 0001:0001b92b       ??8FoxString@@QBE_NPBD@Z   1001c92b f   vfp2ccppapi.obj
 0001:0001b963       ?ICompare@FoxString@@QBE_NPAD@Z 1001c963 f   vfp2ccppapi.obj
 0001:0001b97a       ?GetWordCount@FoxString@@QBEID@Z 1001c97a f   vfp2ccppapi.obj
 0001:0001b99f       ?Upper@FoxString@@QAEAAV1@XZ 1001c99f f   vfp2ccppapi.obj
 0001:0001b9b1       ?Lower@FoxString@@QAEAAV1@XZ 1001c9b1 f   vfp2ccppapi.obj
 0001:0001b9c3       ?StringDblCount@FoxString@@QAEIXZ 1001c9c3 f   vfp2ccppapi.obj
 0001:0001b9f2       ?StringDblLen@FoxString@@QAEIXZ 1001c9f2 f   vfp2ccppapi.obj
 0001:0001ba29       ?ReleaseObjectRef@@YGXPADJ@Z 1001ca29 f   vfp2ccppapi.obj
 0001:0001ba5c       ?FindVar@@YGXJAAULocator@@@Z 1001ca5c f   vfp2ccppapi.obj
 0001:0001ba87       ?FindVar@@YGJPAD@Z         1001ca87 f   vfp2ccppapi.obj
 0001:0001baac       ?NewVar@@YGJPADAAULocator@@_N@Z 1001caac f   vfp2ccppapi.obj
 0001:0001badd       ?TimeChangeWindowProc@TimeZoneInfo@@CGJPAUHWND__@@IIJ@Z 1001cadd f   vfp2ccppapi.obj
 0001:0001bafb       ?Dimension@FoxCStringArray@@AAEXI@Z 1001cafb f   vfp2ccppapi.obj
 0001:0001bbac       ??1FoxCStringArray@@QAE@XZ 1001cbac f   vfp2ccppapi.obj
 0001:0001bbd1       ?ALen@FoxArray@@QAEIAAI@Z  1001cbd1 f   vfp2ccppapi.obj
 0001:0001bc39       ?InitArray@FoxArray@@AAEXXZ 1001cc39 f   vfp2ccppapi.obj
 0001:0001bc77       ?Init@FoxArray@@AAEXAAULocator@@@Z 1001cc77 f   vfp2ccppapi.obj
 0001:0001bcca       ??0FoxArray@@QAE@AAULocator@@@Z 1001ccca f   vfp2ccppapi.obj
 0001:0001bcd6       ?Release@FoxObject@@QAEXXZ 1001ccd6 f   vfp2ccppapi.obj
 0001:0001bcfe       ??1FoxObject@@QAE@XZ       1001ccfe f   vfp2ccppapi.obj
 0001:0001bd43       ??0FoxObject@@QAE@PAUParamBlk@@H@Z 1001cd43 f   vfp2ccppapi.obj
 0001:0001bd84       ??0FoxObject@@QAE@AAUValue@@@Z 1001cd84 f   vfp2ccppapi.obj
 0001:0001bdad       ??0FoxDateTime@@QAE@N@Z    1001cdad f   vfp2ccppapi.obj
 0001:0001bdcc       ??0FoxDateTime@@QAE@AAU_FILETIME@@@Z 1001cdcc f   vfp2ccppapi.obj
 0001:0001bdf3       ??0FoxDateTime@@QAE@AAU_SYSTEMTIME@@@Z 1001cdf3 f   vfp2ccppapi.obj
 0001:0001be11       ??0FoxDateTime@@QAE@AAUValue@@@Z 1001ce11 f   vfp2ccppapi.obj
 0001:0001be33       ??0FoxDate@@QAE@AAU_FILETIME@@@Z 1001ce33 f   vfp2ccppapi.obj
 0001:0001be5a       ??0FoxDate@@QAE@AAU_SYSTEMTIME@@@Z 1001ce5a f   vfp2ccppapi.obj
 0001:0001be7e       ??0FoxDate@@QAE@AAUValue@@@Z 1001ce7e f   vfp2ccppapi.obj
 0001:0001bea0       ??1FoxWString@@QAE@XZ      1001cea0 f   vfp2ccppapi.obj
 0001:0001beda       ??8FoxString@@QBE_NAAV0@@Z 1001ceda f   vfp2ccppapi.obj
 0001:0001befe       ?Detach@FoxString@@QAEXAAUValue@@@Z 1001cefe f   vfp2ccppapi.obj
 0001:0001bf2d       ?Detach@FoxString@@QAEXXZ  1001cf2d f   vfp2ccppapi.obj
 0001:0001bf45       ?ExtendBuffer@FoxString@@QAEAAV1@I@Z 1001cf45 f   vfp2ccppapi.obj
 0001:0001bf7e       ?NullTerminate@FoxString@@QAEAAV1@XZ 1001cf7e f   vfp2ccppapi.obj
 0001:0001bfb3       ?Expand@FoxString@@QAEIH@Z 1001cfb3 f   vfp2ccppapi.obj
 0001:0001bfeb       ?Rat@FoxString@@QBEIDII@Z  1001cfeb f   vfp2ccppapi.obj
 0001:0001c022       ?At@FoxString@@QBEIDII@Z   1001d022 f   vfp2ccppapi.obj
 0001:0001c052       ?SubStr@FoxString@@QAEAAV1@II@Z 1001d052 f   vfp2ccppapi.obj
 0001:0001c0b8       ?RTrim@FoxString@@QAEAAV1@D@Z 1001d0b8 f   vfp2ccppapi.obj
 0001:0001c0e1       ?LTrim@FoxString@@QAEAAV1@D@Z 1001d0e1 f   vfp2ccppapi.obj
 0001:0001c115       ?Alltrim@FoxString@@QAEAAV1@D@Z 1001d115 f   vfp2ccppapi.obj
 0001:0001c164       ?Return@FoxString@@QAEXXZ  1001d164 f   vfp2ccppapi.obj
 0001:0001c17d       ?StringLen@FoxString@@QAEAAV1@XZ 1001d17d f   vfp2ccppapi.obj
 0001:0001c18e       ?CopyBytes@FoxString@@QAEAAV1@PBEI@Z 1001d18e f   vfp2ccppapi.obj
 0001:0001c1b1       ?StrnCpy@FoxString@@QAEAAV1@PBDI@Z 1001d1b1 f   vfp2ccppapi.obj
 0001:0001c1c5       ?Empty@FoxString@@QBE_NXZ  1001d1c5 f   vfp2ccppapi.obj
 0001:0001c1f1       ?Size@FoxString@@QAEAAV1@I@Z 1001d1f1 f   vfp2ccppapi.obj
 0001:0001c22b       ?Release@FoxString@@QAEXXZ 1001d22b f   vfp2ccppapi.obj
 0001:0001c256       ??1FoxString@@QAE@XZ       1001d256 f   vfp2ccppapi.obj
 0001:0001c27a       ??0FoxString@@QAE@I@Z      1001d27a f   vfp2ccppapi.obj
 0001:0001c2d2       ??0FoxString@@QAE@PBD@Z    1001d2d2 f   vfp2ccppapi.obj
 0001:0001c374       ??0FoxString@@QAE@PAUParamBlk@@HW4_FoxStringInitialization@@@Z 1001d374 f   vfp2ccppapi.obj
 0001:0001c421       ??0FoxString@@QAE@PAUParamBlk@@HI@Z 1001d421 f   vfp2ccppapi.obj
 0001:0001c4ce       ??0FoxString@@QAE@PAUParamBlk@@H@Z 1001d4ce f   vfp2ccppapi.obj
 0001:0001c572       ??0FoxString@@QAE@AAUValue@@I@Z 1001d572 f   vfp2ccppapi.obj
 0001:0001c602       ??0FoxString@@QAE@AAUValue@@@Z 1001d602 f   vfp2ccppapi.obj
 0001:0001c689       ??0FoxString@@QAE@AAV0@@Z  1001d689 f   vfp2ccppapi.obj
 0001:0001c714       ??0FoxString@@QAE@XZ       1001d714 f   vfp2ccppapi.obj
 0001:0001c733       ??4FoxReference@@QAEAAV0@_N@Z 1001d733 f   vfp2ccppapi.obj
 0001:0001c774       ??4FoxReference@@QAEAAV0@N@Z 1001d774 f   vfp2ccppapi.obj
 0001:0001c7c4       ??4FoxReference@@QAEAAV0@K@Z 1001d7c4 f   vfp2ccppapi.obj
 0001:0001c803       ??4FoxReference@@QAEAAV0@H@Z 1001d803 f   vfp2ccppapi.obj
 0001:0001c847       ??4FoxReference@@QAEAAV0@AAULocator@@@Z 1001d847 f   vfp2ccppapi.obj
 0001:0001c8a9       ??4FoxReference@@QAEAAV0@AAVFoxValue@@@Z 1001d8a9 f   vfp2ccppapi.obj
 0001:0001c8db       ?GetIDispatchFromObject@@YGPAUIDispatch@@AAUValue@@@Z 1001d8db f   vfp2ccppapi.obj
 0001:0001c97b       ?StoreObjectRef@@YGXPADAAJAAUValue@@@Z 1001d97b f   vfp2ccppapi.obj
 0001:0001c9d4       ?FindVar@@YGXPADAAULocator@@@Z 1001d9d4 f   vfp2ccppapi.obj
 0001:0001c9e0       ??0FoxObject@@QAE@PAD@Z    1001d9e0 f   vfp2ccppapi.obj
 0001:0001ca1f       ??YFoxString@@QAEAAV0@D@Z  1001da1f f   vfp2ccppapi.obj
 0001:0001ca4a       ??YFoxString@@QAEAAV0@AAV0@@Z 1001da4a f   vfp2ccppapi.obj
 0001:0001ca94       ??YFoxString@@QAEAAV0@PBD@Z 1001da94 f   vfp2ccppapi.obj
 0001:0001caec       ??4FoxString@@QAEAAV0@PAD@Z 1001daec f   vfp2ccppapi.obj
 0001:0001cb54       ??4FoxString@@QAEAAV0@AAV0@@Z 1001db54 f   vfp2ccppapi.obj
 0001:0001cb87       ??6FoxString@@QAEAAV0@AAVFoxObject@@@Z 1001db87 f   vfp2ccppapi.obj
 0001:0001cbe8       ??4FoxString@@QAEAAV0@AAVFoxValue@@@Z 1001dbe8 f   vfp2ccppapi.obj
 0001:0001cc71       ??4FoxString@@QAEAAV0@AAULocator@@@Z 1001dc71 f   vfp2ccppapi.obj
 0001:0001cca3       ?Attach@FoxString@@QAEAAV1@AAUValue@@I@Z 1001dca3 f   vfp2ccppapi.obj
 0001:0001cd19       ?Fullpath@FoxString@@QAEAAV1@XZ 1001dd19 f   vfp2ccppapi.obj
 0001:0001cd6e       ?Replicate@FoxString@@QAEAAV1@PADI@Z 1001dd6e f   vfp2ccppapi.obj
 0001:0001cdce       ?Strtran@FoxString@@QAEAAV1@AAV1@0@Z 1001ddce f   vfp2ccppapi.obj
 0001:0001ce43       ?Prepend@FoxString@@QAEAAV1@PBD@Z 1001de43 f   vfp2ccppapi.obj
 0001:0001ce9d       ?AddBs@FoxString@@QAEAAV1@XZ 1001de9d f   vfp2ccppapi.obj
 0001:0001cecd       ?CopyDblString@FoxString@@QAEAAV1@PBDI@Z 1001decd f   vfp2ccppapi.obj
 0001:0001cf06       ??4FoxCStringArray@@QAEAAV0@AAVFoxArray@@@Z 1001df06 f   vfp2ccppapi.obj
 0001:0001cf89       ?Attach@FoxCursor@@QAEAAV1@PAD0@Z 1001df89 f   vfp2ccppapi.obj
 0001:0001d09d       ?Create@FoxCursor@@QAEAAV1@PAD0@Z 1001e09d f   vfp2ccppapi.obj
 0001:0001d21b       ?ReDimension@FoxArray@@AAEXII@Z 1001e21b f   vfp2ccppapi.obj
 0001:0001d274       ?Dimension@FoxArray@@QAEAAV1@II@Z 1001e274 f   vfp2ccppapi.obj
 0001:0001d31b       ?Init@FoxArray@@AAEXAAUValue@@II@Z 1001e31b f   vfp2ccppapi.obj
 0001:0001d3b1       ??0FoxArray@@QAE@PAUParamBlk@@HD@Z 1001e3b1 f   vfp2ccppapi.obj
 0001:0001d405       ??0FoxArray@@QAE@PAUParamBlk@@H@Z 1001e405 f   vfp2ccppapi.obj
 0001:0001d445       ??0FoxArray@@QAE@AAUValue@@II@Z 1001e445 f   vfp2ccppapi.obj
 0001:0001d45f       ?EmptyObject@FoxObject@@QAEAAV1@XZ 1001e45f f   vfp2ccppapi.obj
 0001:0001d485       ?NewObject@FoxObject@@QAEAAV1@PAD@Z 1001e485 f   vfp2ccppapi.obj
 0001:0001d4c3       ?Convert@FoxDateTimeLiteral@@QAEXAAU_FILETIME@@_N@Z 1001e4c3 f   vfp2ccppapi.obj
 0001:0001d585       ?Convert@FoxDateTimeLiteral@@QAEXAAU_SYSTEMTIME@@_N@Z 1001e585 f   vfp2ccppapi.obj
 0001:0001d68e       ??4FoxWString@@QAEAAV0@AAVFoxString@@@Z 1001e68e f   vfp2ccppapi.obj
 0001:0001d71b       ??4FoxWString@@QAEAAV0@PAD@Z 1001e71b f   vfp2ccppapi.obj
 0001:0001d7ab       ??0FoxWString@@QAE@AAVFoxString@@@Z 1001e7ab f   vfp2ccppapi.obj
 0001:0001d857       ??0FoxWString@@QAE@PAUParamBlk@@HD@Z 1001e857 f   vfp2ccppapi.obj
 0001:0001d936       ??0FoxWString@@QAE@PAUParamBlk@@H@Z 1001e936 f   vfp2ccppapi.obj
 0001:0001da02       ??0FoxWString@@QAE@AAUValue@@@Z 1001ea02 f   vfp2ccppapi.obj
 0001:0001dab9       ??4FoxString@@QAEAAV0@PA_W@Z 1001eab9 f   vfp2ccppapi.obj
 0001:0001db4c       ?ToU1SafeArray@FoxString@@QBEPAUtagSAFEARRAY@@XZ 1001eb4c f   vfp2ccppapi.obj
 0001:0001dbe8       ?ToBSTR@FoxString@@QBEPA_WXZ 1001ebe8 f   vfp2ccppapi.obj
 0001:0001dc5c       ??0FoxString@@QAE@PAUtagSAFEARRAY@@@Z 1001ec5c f   vfp2ccppapi.obj
 0001:0001dd6f       ??0FoxString@@QAE@PA_WI@Z  1001ed6f f   vfp2ccppapi.obj
 0001:0001de28       ??0TimeZoneInfo@@AAE@XZ    1001ee28 f   vfp2ccppapi.obj
 0001:0001df04       ?GetTsi@TimeZoneInfo@@SGAAV1@XZ 1001ef04 f   vfp2ccppapi.obj
 0001:0001df2f       ?Dimension@FoxArray@@QAEAAV1@PADII@Z 1001ef2f f   vfp2ccppapi.obj
 0001:0001df8d       ?Dimension@FoxArray@@QAEAAV1@AAUValue@@II@Z 1001ef8d f   vfp2ccppapi.obj
 0001:0001dff4       ?ToLocal@FoxDateTime@@QAEAAV1@XZ 1001eff4 f   vfp2ccppapi.obj
 0001:0001e013       ?ToUTC@FoxDateTime@@QAEAAV1@XZ 1001f013 f   vfp2ccppapi.obj
 0001:0001e032       ?Alloc@FoxMemo@@QAEXI@Z    1001f032 f   vfp2ccppapi.obj
 0001:0001e06d       ??0FoxMemo@@QAE@AAULocator@@@Z 1001f06d f   vfp2ccppapi.obj
 0001:0001e0f1       ??0FoxMemo@@QAE@PAUParamBlk@@H@Z 1001f0f1 f   vfp2ccppapi.obj
 0001:0001e1a2       ??4FoxMemo@@QAEAAV0@AAVFoxString@@@Z 1001f1a2 f   vfp2ccppapi.obj
 0001:0001e20b       _GetIDispatch@4            1001f20b f   vfp2ccom.obj
 0001:0001e212       @RevokeActiveObjectLib@4   1001f212 f   vfp2ccom.obj
 0001:0001e23e       @RegisterActiveObjectLib@4 1001f23e f   vfp2ccom.obj
 0001:0001e32e       @CreateGuid@4              1001f32e f   vfp2ccom.obj
 0001:0001e440       @IsEqualGUIDLib@4          1001f440 f   vfp2ccom.obj
 0001:0001e625       @StringFromCLSIDLib@4      1001f625 f   vfp2ccom.obj
 0001:0001e6f2       @CLSIDFromStringLib@4      1001f6f2 f   vfp2ccom.obj
 0001:0001e7a4       @ProgIDFromCLSIDLib@4      1001f7a4 f   vfp2ccom.obj
 0001:0001e928       @CLSIDFromProgIDLib@4      1001f928 f   vfp2ccom.obj
 0001:0001e9da       @RegisterObjectAsFileMoniker@4 1001f9da f   vfp2ccom.obj
 0001:0001ec8f       _VFP2C_Init_Com@0          1001fc8f f   vfp2ccom.obj
 0001:0001ed51       ?FreeThunk@@YGHPAX@Z       1001fd51 f   vfp2ccallback.obj
 0001:0001ed66       ?AllocThunk@@YGPAXH@Z      1001fd66 f   vfp2ccallback.obj
 0001:0001ed97       ?NewCallbackFunc@@YGPAU_CALLBACKFUNC@@XZ 1001fd97 f   vfp2ccallback.obj
 0001:0001ede5       ?FindMsgCallbackThunk@@YGPAXPAU_WINDOWSUBCLASS@@I@Z 1001fde5 f   vfp2ccallback.obj
 0001:0001ee05       ?NewMsgCallback@@YGPAU_MSGCALLBACK@@I@Z 1001fe05 f   vfp2ccallback.obj
 0001:0001ee6f       ?FindWindowSubclass@@YGPAU_WINDOWSUBCLASS@@PAUHWND__@@_N@Z 1001fe6f f   vfp2ccallback.obj
 0001:0001ee94       ?NewWindowSubclass@@YGPAU_WINDOWSUBCLASS@@PAUHWND__@@_N@Z 1001fe94 f   vfp2ccallback.obj
 0001:0001eef2       ?AddMsgCallback@@YGPAU_MSGCALLBACK@@PAU_WINDOWSUBCLASS@@I@Z 1001fef2 f   vfp2ccallback.obj
 0001:0001ef21       ?AsyncCallbackWindowProc@@YGJPAUHWND__@@IIJ@Z 1001ff21 f   vfp2ccallback.obj
 0001:0001ef9d       ?ReleaseCallbackFuncs@@YGXXZ 1001ff9d f   vfp2ccallback.obj
 0001:0001effb       ?DeleteCallbackFunc@@YG_NPAX@Z 1001fffb f   vfp2ccallback.obj
 0001:0001f083       ?CreateSubclassMsgThunkProc@@YGXPAU_WINDOWSUBCLASS@@PAU_MSGCALLBACK@@PAD2KH@Z 10020083 f   vfp2ccallback.obj
 0001:0001f8df       ?CreateSubclassThunkProc@@YGXPAU_WINDOWSUBCLASS@@@Z 100208df f   vfp2ccallback.obj
 0001:0001fac1       ?UnsubclassWindowExCallbackChild@@YGXPAUHWND__@@J@Z 10020ac1 f   vfp2ccallback.obj
 0001:0001fb18       ?UnsubclassWindowExCallback@@YGXPAUHWND__@@J@Z 10020b18 f   vfp2ccallback.obj
 0001:0001fb9d       ?UnsubclassWindowEx@@YGXPAU_WINDOWSUBCLASS@@@Z 10020b9d f   vfp2ccallback.obj
 0001:0001fbb6       ?UnsubclassWindow@@YGXPAU_WINDOWSUBCLASS@@@Z 10020bb6 f   vfp2ccallback.obj
 0001:0001fc22       ?SubclassWindow@@YGXPAU_WINDOWSUBCLASS@@@Z 10020c22 f   vfp2ccallback.obj
 0001:0001fce0       ?FreeMsgCallback@@YGXPAU_WINDOWSUBCLASS@@PAU_MSGCALLBACK@@@Z 10020ce0 f   vfp2ccallback.obj
 0001:0001fd3a       ?FreeWindowSubclass@@YGXPAU_WINDOWSUBCLASS@@@Z 10020d3a f   vfp2ccallback.obj
 0001:0001fd6d       _VFP2C_Init_Callback@0     10020d6d f   vfp2ccallback.obj
 0001:0001fe90       @DestroyCallbackFunc@4     10020e90 f   vfp2ccallback.obj
 0001:0001fea2       @CreateCallbackFunc@4      10020ea2 f   vfp2ccallback.obj
 0001:00021013       ?ReleaseWindowSubclasses@@YGXXZ 10022013 f   vfp2ccallback.obj
 0001:0002106f       ?RemoveMsgCallback@@YGHPAU_WINDOWSUBCLASS@@I@Z 1002206f f   vfp2ccallback.obj
 0001:000210ae       ?RemoveWindowSubclass@@YGXPAU_WINDOWSUBCLASS@@@Z 100220ae f   vfp2ccallback.obj
 0001:000210e2       @BindEventsEx@4            100220e2 f   vfp2ccallback.obj
 0001:00021315       _VFP2C_Destroy_Callback@4  10022315 f   vfp2ccallback.obj
 0001:0002135b       @UnbindEventsEx@4          1002235b f   vfp2ccallback.obj
 0001:00021449       ?GetTypeInfo@CThreadedComObject@@UAGJIKPAPAUITypeInfo@@@Z 10022449 f   vfp2casynccom.obj
 0001:00021451       ?GetTypeInfoCount@CThreadedComObject@@UAGJPAI@Z 10022451 f   vfp2casynccom.obj
 0001:0002145d       ?AddRef@CThreadedComObject@@UAGKXZ 1002245d f   vfp2casynccom.obj
 0001:0002146a       ?Aborted@CComCallInfo@@AAEJPAUtagVARIANT@@@Z 1002246a f   vfp2casynccom.obj
 0001:00021481       ?UnmarshalParameters@CComCallInfo@@AAEJXZ 10022481 f   vfp2casynccom.obj
 0001:000214c5       ?MarshalParameters@CComCallInfo@@AAEJPAUtagDISPPARAMS@@@Z 100224c5 f   vfp2casynccom.obj
 0001:00021598       ?GetIDsOfNames@CComCallInfo@@UAGJABU_GUID@@PAPA_WIKPAJ@Z 10022598 f   vfp2casynccom.obj
 0001:0002161d       ?GetTypeInfo@CComCallInfo@@UAGJIKPAPAUITypeInfo@@@Z 1002261d f   vfp2casynccom.obj
 0001:00021630       ?GetTypeInfoCount@CComCallInfo@@UAGJPAI@Z 10022630 f   vfp2casynccom.obj
 0001:0002163f       ?Release@CComCallInfo@@UAGKXZ 1002263f f   vfp2casynccom.obj
 0001:00021645       ?AddRef@CComCallInfo@@UAGKXZ 10022645 f   vfp2casynccom.obj
 0001:0002164b       ?QueryInterface@CComCallInfo@@UAGJABU_GUID@@PAPAX@Z 1002264b f   vfp2casynccom.obj
 0001:0002165a       ?ThreadCleanup@CThreadedComObject@@AAEXXZ 1002265a f   vfp2casynccom.obj
 0001:000216ba       ?GetCallRunTime@CThreadedComObject@@AAEJJPAUtagVARIANT@@@Z 100226ba f   vfp2casynccom.obj
 0001:00021730       ?QueryInterface@CThreadedComObject@@UAGJABU_GUID@@PAPAX@Z 10022730 f   vfp2casynccom.obj
 0001:00021771       ?Invoke@CComCallInfo@@UAGJJABU_GUID@@KGPAUtagDISPPARAMS@@PAUtagVARIANT@@PAUtagEXCEPINFO@@PAI@Z 10022771 f   vfp2casynccom.obj
 0001:0002184c       ??1CComCallInfo@@QAE@XZ    1002284c f   vfp2casynccom.obj
 0001:000218d7       ??0CComCallInfo@@QAE@XZ    100228d7 f   vfp2casynccom.obj
 0001:00021904       ?FreeCall@CThreadedComObject@@AAEXXZ 10022904 f   vfp2casynccom.obj
 0001:0002192b       ??0CThreadedComObject@@QAE@PA_W_N@Z 1002292b f   vfp2casynccom.obj
 0001:000219d3       ?DequeueCall@CThreadedComObject@@AAE_NXZ 100229d3 f   vfp2casynccom.obj
 0001:00021a34       ?QueueCall@CThreadedComObject@@AAEJAAV?$CAutoPtr@VCComCallInfo@@@ATL@@@Z 10022a34 f   vfp2casynccom.obj
 0001:00021a98       ?ThreadInitialize@CThreadedComObject@@AAE_NXZ 10022a98 f   vfp2casynccom.obj
 0001:000220d2       ?AbortCall@CThreadedComObject@@AAEJJPAUtagVARIANT@@@Z 100230d2 f   vfp2casynccom.obj
 0001:000221cf       ?Invoke@CThreadedComObject@@UAGJJABU_GUID@@KGPAUtagDISPPARAMS@@PAUtagVARIANT@@PAUtagEXCEPINFO@@PAI@Z 100231cf f   vfp2casynccom.obj
 0001:00022504       ??1CThreadedComObject@@QAE@XZ 10023504 f   vfp2casynccom.obj
 0001:000225f9       ?ProcessCalls@CThreadedComObject@@AAE_NXZ 100235f9 f   vfp2casynccom.obj
 0001:000228f9       ?MessageLoop@CThreadedComObject@@AAEXXZ 100238f9 f   vfp2casynccom.obj
 0001:00022977       ?Release@CThreadedComObject@@UAGKXZ 10023977 f   vfp2casynccom.obj
 0001:00022996       ?ThreadProc@CThreadedComObject@@CGIPAX@Z 10023996 f   vfp2casynccom.obj
 0001:000229b7       ?GetIDsOfNames@CThreadedComObject@@UAGJABU_GUID@@PAPA_WIKPAJ@Z 100239b7 f   vfp2casynccom.obj
 0001:00022a49       ?CreateObject@CThreadedComObject@@QAEXKPAUIDispatch@@K@Z 10023a49 f   vfp2casynccom.obj
 0001:00022c3b       @CreateThreadObject@4      10023c3b f   vfp2casynccom.obj
 0001:00022d68       ?OutstandingIOs@FindFileChangeExThread@@AAEJXZ 10023d68 f   vfp2casync.obj
 0001:00022d6f       ?ReleaseIO@FindFileChangeExThread@@QAEXXZ 10023d6f f   vfp2casync.obj
 0001:00022d7c       ?AddIO@FindFileChangeExThread@@QAEXXZ 10023d7c f   vfp2casync.obj
 0001:00022d89       ?AddPostMessage@FindFileChangeExThread@@QAEXXZ 10023d89 f   vfp2casync.obj
 0001:00022dbd       ?IsWatching@FindFileChangeExThread@@QBE_NXZ 10023dbd f   vfp2casync.obj
 0001:00022dc7       ?CompareDirectory@FindFileChangeExEntry@@QAE_NAAV?$CStrBuilder@$0BAG@@@@Z 10023dc7 f   vfp2casync.obj
 0001:00022dd2       ?GetIdentity@FindFileChangeExEntry@@QAEGXZ 10023dd2 f   vfp2casync.obj
 0001:00022dd7       ?CheckIdentity@FindFileChangeExEntry@@QAE_NK@Z 10023dd7 f   vfp2casync.obj
 0001:00022de7       ?IsAborted@FindFileChangeExEntry@@QAE_NXZ 10023de7 f   vfp2casync.obj
 0001:00022dee       ?IsValid@FindFileChangeExEntry@@QAE_NXZ 10023dee f   vfp2casync.obj
 0001:00022dfe       ?AddRef@FindFileChangeExEntry@@QAEXJ@Z 10023dfe f   vfp2casync.obj
 0001:00022e11       ?SignalThreadAbort@WaitForObjectThread@@UAEXXZ 10023e11 f   vfp2casync.obj
 0001:00022e1b       ?SignalThreadAbort@FindRegistryChangeThread@@UAEXXZ 10023e1b f   vfp2casync.obj
 0001:00022e25       ?SignalThreadAbort@FindFileChangeExThread@@UAEXXZ 10023e25 f   vfp2casync.obj
 0001:00022e34       ?PeekCallback@FindFileChangeExThread@@QAE_NXZ 10023e34 f   vfp2casync.obj
 0001:00022e44       ?GetFileChangeIdentity@FindFileChangeExThread@@QAEGXZ 10023e44 f   vfp2casync.obj
 0001:00022e71       ?Cancel@FindFileChangeExEntry@@QAEX_N@Z 10023e71 f   vfp2casync.obj
 0001:00022ece       ?SignalThreadAbort@FindFileChangeThread@@UAEXXZ 10023ece f   vfp2casync.obj
 0001:00022ed8       ??1FindFileChangeExEntry@@QAE@XZ 10023ed8 f   vfp2casync.obj
 0001:00022f37       ??0FindFileChangeExEntry@@QAE@XZ 10023f37 f   vfp2casync.obj
 0001:00022fac       ??1FindRegistryChangeThread@@QAE@XZ 10023fac f   vfp2casync.obj
 0001:00022fee       ??0FindRegistryChangeThread@@QAE@AAVCThreadManager@@@Z 10023fee f   vfp2casync.obj
 0001:00023012       ?AddDirectory@FindFileChangeExThread@@QAEXPAVFindFileChangeExEntry@@@Z 10024012 f   vfp2casync.obj
 0001:0002302b       ?Release@FindFileChangeExEntry@@QAEXJ@Z 1002402b f   vfp2casync.obj
 0001:0002304c       ??1FindFileChangeThread@@QAE@XZ 1002404c f   vfp2casync.obj
 0001:0002307d       ??0FindFileChangeThread@@QAE@AAVCThreadManager@@@Z 1002407d f   vfp2casync.obj
 0001:000230ad       ?Run@WaitForObjectThread@@UAEKXZ 100240ad f   vfp2casync.obj
 0001:0002311b       ?Run@FindRegistryChangeThread@@UAEKXZ 1002411b f   vfp2casync.obj
 0001:0002321f       ?Release@FindRegistryChangeThread@@UAEXXZ 1002421f f   vfp2casync.obj
 0001:0002322c       ?PopCallback@FindFileChangeExThread@@QAE_NAAUFindFileChangeExCallback@@@Z 1002422c f   vfp2casync.obj
 0001:00023242       ?PushCallback@FindFileChangeExThread@@QAEXABUFindFileChangeExCallback@@@Z 10024242 f   vfp2casync.obj
 0001:00023258       ?RemoveAllDirectories@FindFileChangeExThread@@QAEXXZ 10024258 f   vfp2casync.obj
 0001:00023291       ?RemoveDirectoryA@FindFileChangeExThread@@QAE_NPAD@Z 10024291 f   vfp2casync.obj
 0001:00023340       ?RemoveDirectoryA@FindFileChangeExThread@@QAE_NG@Z 10024340 f   vfp2casync.obj
 0001:00023382       ?RemoveDirectoryA@FindFileChangeExThread@@QAE_NPAVFindFileChangeExEntry@@@Z 10024382 f   vfp2casync.obj
 0001:000233dd       ??0FindFileChangeExThread@@QAE@AAVCThreadManager@@@Z 100243dd f   vfp2casync.obj
 0001:000234ad       ?ErrorCallback@FindFileChangeExEntry@@QAEXK@Z 100244ad f   vfp2casync.obj
 0001:0002350d       ?Callback@FindFileChangeExEntry@@QAEXPAU_FILE_NOTIFY_INFORMATION@@@Z 1002450d f   vfp2casync.obj
 0001:00023689       ?OnFileChangeEvent@FindFileChangeExEntry@@QAE_NKPAVFindFileChangeExThread@@@Z 10024689 f   vfp2casync.obj
 0001:00023797       ?Setup@FindFileChangeExEntry@@QAEXAAVFoxString@@_NK0PAUIDispatch@@PAVFindFileChangeExThread@@@Z 10024797 f   vfp2casync.obj
 0001:0002392f       ?Run@FindFileChangeThread@@UAEKXZ 1002492f f   vfp2casync.obj
 0001:00023a41       ?Release@FindFileChangeThread@@UAEXXZ 10024a41 f   vfp2casync.obj
 0001:00023a4e       _FindChangeWindowProc@16   10024a4e f   vfp2casync.obj
 0001:00023bea       ?Setup@WaitForObjectThread@@QAE_NPAXAAVFoxString@@@Z 10024bea f   vfp2casync.obj
 0001:00023c18       ?Release@WaitForObjectThread@@UAEXXZ 10024c18 f   vfp2casync.obj
 0001:00023c25       ?Setup@FindRegistryChangeThread@@QAE_NPAUHKEY__@@PAD_NKAAVFoxString@@@Z 10024c25 f   vfp2casync.obj
 0001:00023cbc       ?Run@FindFileChangeExThread@@UAEKXZ 10024cbc f   vfp2casync.obj
 0001:00023d6e       ?Release@FindFileChangeExThread@@UAEXXZ 10024d6e f   vfp2casync.obj
 0001:00023d90       ?Setup@FindFileChangeThread@@QAE_NPAD_NK0@Z 10024d90 f   vfp2casync.obj
 0001:00023e06       _VFP2C_Destroy_Async@4     10024e06 f   vfp2casync.obj
 0001:00023e3e       _VFP2C_Init_Async@0        10024e3e f   vfp2casync.obj
 0001:00023f47       @CancelWaitForObject@4     10024f47 f   vfp2casync.obj
 0001:00023fac       @AsyncWaitForObject@4      10024fac f   vfp2casync.obj
 0001:000240d6       @CancelRegistryChange@4    100250d6 f   vfp2casync.obj
 0001:0002413b       @FindRegistryChange@4      1002513b f   vfp2casync.obj
 0001:0002428b       @CancelFileChangeEx@4      1002528b f   vfp2casync.obj
 0001:0002438f       @FindFileChangeEx@4        1002538f f   vfp2casync.obj
 0001:000245b3       @CancelFileChange@4        100255b3 f   vfp2casync.obj
 0001:00024618       @FindFileChange@4          10025618 f   vfp2casync.obj
 0001:0002477e       ?Ret@RuntimeAssembler@@AAEXH@Z 1002577e f   vfp2cassembly.obj
 0001:00024798       ?Cmp@RuntimeAssembler@@QAEXW4_REGISTER@@0@Z 10025798 f   vfp2cassembly.obj
 0001:000247bc       ?MovSX_Ex@RuntimeAssembler@@AAEXW4_REGISTER@@W4_TYPE@@H@Z 100257bc f   vfp2cassembly.obj
 0001:000247bd       ?MovZX@RuntimeAssembler@@QAEXW4_REGISTER@@0@Z 100257bd f   vfp2cassembly.obj
 0001:000247e8       ?Cdq@RuntimeAssembler@@QAEXXZ 100257e8 f   vfp2cassembly.obj
 0001:000247f0       ?Push@RuntimeAssembler@@QAEXH@Z 100257f0 f   vfp2cassembly.obj
 0001:000247ff       ?BreakPoint@RuntimeAssembler@@QAEXXZ 100257ff f   vfp2cassembly.obj
 0001:00024807       ?LabelRef@RuntimeAssembler@@AAEPAU_LABEL@@PAD@Z 10025807 f   vfp2cassembly.obj
 0001:00024874       ?Patch@RuntimeAssembler@@QAEXXZ 10025874 f   vfp2cassembly.obj
 0001:000248ae       ?Jump@RuntimeAssembler@@QAEXPAD@Z 100258ae f   vfp2cassembly.obj
 0001:000248df       ?Label@RuntimeAssembler@@QAEXPAD@Z 100258df f   vfp2cassembly.obj
 0001:0002490d       ?LocalVarRef@RuntimeAssembler@@AAEPAU_CTYPEINFO@@PAD@Z 1002590d f   vfp2cassembly.obj
 0001:00024964       ?LocalVar@RuntimeAssembler@@QAEXPADHH@Z 10025964 f   vfp2cassembly.obj
 0001:000249ce       ?LocalVar@RuntimeAssembler@@QAEXPADW4_TYPE@@@Z 100259ce f   vfp2cassembly.obj
 0001:00024a45       ?ParameterSize@RuntimeAssembler@@AAEHXZ 10025a45 f   vfp2cassembly.obj
 0001:00024a6a       ?ParameterRef@RuntimeAssembler@@AAEPAU_CTYPEINFO@@W4_PARAMNO@@@Z 10025a6a f   vfp2cassembly.obj
 0001:00024a80       ?ParameterRef@RuntimeAssembler@@AAEPAU_CTYPEINFO@@PAD@Z 10025a80 f   vfp2cassembly.obj
 0001:00024ad4       ?ParameterEx@RuntimeAssembler@@AAEXPAU_CTYPEINFO@@W4_TYPE@@@Z 10025ad4 f   vfp2cassembly.obj
 0001:00024b2b       ?Parameter@RuntimeAssembler@@QAEXW4_TYPE@@@Z 10025b2b f   vfp2cassembly.obj
 0001:00024b48       ?Parameter@RuntimeAssembler@@QAEXPADW4_TYPE@@@Z 10025b48 f   vfp2cassembly.obj
 0001:00024b76       ?CodeSize@RuntimeAssembler@@QAEHXZ 10025b76 f   vfp2cassembly.obj
 0001:00024b80       ?WriteCode@RuntimeAssembler@@QAEXPAX@Z 10025b80 f   vfp2cassembly.obj
 0001:00024ba8       ??0RuntimeAssembler@@QAE@XZ 10025ba8 f   vfp2cassembly.obj
 0001:00024bd0       ?Fld_Ex@RuntimeAssembler@@AAEXW4_TYPE@@H@Z 10025bd0 f   vfp2cassembly.obj
 0001:00024c10       ?Ret@RuntimeAssembler@@QAEXXZ 10025c10 f   vfp2cassembly.obj
 0001:00024c27       ?Jmp@RuntimeAssembler@@QAEXPAD@Z 10025c27 f   vfp2cassembly.obj
 0001:00024c3a       ?Je@RuntimeAssembler@@QAEXPAD@Z 10025c3a f   vfp2cassembly.obj
 0001:00024c54       ?Cmp@RuntimeAssembler@@QAEXW4_REGISTER@@H@Z 10025c54 f   vfp2cassembly.obj
 0001:00024ce1       ?MovZX_Ex@RuntimeAssembler@@AAEXW4_REGISTER@@W4_TYPE@@H@Z 10025ce1 f   vfp2cassembly.obj
 0001:00024d26       ?Push_Ex@RuntimeAssembler@@AAEXW4_TYPE@@H@Z 10025d26 f   vfp2cassembly.obj
 0001:00024dba       ?Push@RuntimeAssembler@@QAEXPAX@Z 10025dba f   vfp2cassembly.obj
 0001:00024de0       ?LabelAddress@RuntimeAssembler@@QAEPAXPAD@Z 10025de0 f   vfp2cassembly.obj
 0001:00024e01       ?ParmOrVarRef@RuntimeAssembler@@AAEPAU_CTYPEINFO@@PAD@Z 10025e01 f   vfp2cassembly.obj
 0001:00024e22       ?Fld@RuntimeAssembler@@QAEXPADW4_TYPE@@H@Z 10025e22 f   vfp2cassembly.obj
 0001:00024e4a       ?Fld@RuntimeAssembler@@QAEXW4_PARAMNO@@W4_TYPE@@H@Z 10025e4a f   vfp2cassembly.obj
 0001:00024e6c       ?Fld@RuntimeAssembler@@QAEXPAD@Z 10025e6c f   vfp2cassembly.obj
 0001:00024e8f       ?Fld@RuntimeAssembler@@QAEXW4_PARAMNO@@@Z 10025e8f f   vfp2cassembly.obj
 0001:00024eaa       ?Call@RuntimeAssembler@@QAEXW4_REGISTER@@@Z 10025eaa f   vfp2cassembly.obj
 0001:00024ec7       ?Jmp@RuntimeAssembler@@QAEXW4_REGISTER@@@Z 10025ec7 f   vfp2cassembly.obj
 0001:00024ee4       ?MovZX@RuntimeAssembler@@QAEXW4_REGISTER@@PAD@Z 10025ee4 f   vfp2cassembly.obj
 0001:00024f0a       ?MovZX@RuntimeAssembler@@QAEXW4_REGISTER@@W4_PARAMNO@@@Z 10025f0a f   vfp2cassembly.obj
 0001:00024f2b       ?Mov@RuntimeAssembler@@QAEXW4_REGISTER@@0@Z 10025f2b f   vfp2cassembly.obj
 0001:00024f5c       ?Mov@RuntimeAssembler@@QAEXW4_RELREGISTER@@HH@Z 10025f5c f   vfp2cassembly.obj
 0001:00024ff1       ?Mov@RuntimeAssembler@@QAEXPADW4_REGISTER@@@Z 10025ff1 f   vfp2cassembly.obj
 0001:000250a7       ?Mov@RuntimeAssembler@@QAEXPADI@Z 100260a7 f   vfp2cassembly.obj
 0001:000251a5       ?Mov@RuntimeAssembler@@QAEXW4_REGISTER@@PAX@Z 100261a5 f   vfp2cassembly.obj
 0001:000251ef       ?Mov_Ex@RuntimeAssembler@@AAEXW4_REGISTER@@W4_TYPE@@H@Z 100261ef f   vfp2cassembly.obj
 0001:0002526d       ?Lea_Ex@RuntimeAssembler@@AAEXW4_REGISTER@@H@Z 1002626d f   vfp2cassembly.obj
 0001:000252ab       ?Shift_Ex@RuntimeAssembler@@AAEXW4_REGISTER@@HH@Z 100262ab f   vfp2cassembly.obj
 0001:000252ff       ?Xor@RuntimeAssembler@@QAEXW4_REGISTER@@0@Z 100262ff f   vfp2cassembly.obj
 0001:00025330       ?Xor@RuntimeAssembler@@QAEXW4_REGISTER@@H@Z 10026330 f   vfp2cassembly.obj
 0001:000253c3       ?Or@RuntimeAssembler@@QAEXW4_REGISTER@@0@Z 100263c3 f   vfp2cassembly.obj
 0001:000253f4       ?Or@RuntimeAssembler@@QAEXW4_REGISTER@@H@Z 100263f4 f   vfp2cassembly.obj
 0001:00025487       ?And@RuntimeAssembler@@QAEXW4_REGISTER@@0@Z 10026487 f   vfp2cassembly.obj
 0001:000254b8       ?And@RuntimeAssembler@@QAEXW4_REGISTER@@H@Z 100264b8 f   vfp2cassembly.obj
 0001:00025569       ?Inc@RuntimeAssembler@@QAEXW4_REGISTER@@@Z 10026569 f   vfp2cassembly.obj
 0001:00025598       ?Dec@RuntimeAssembler@@QAEXW4_REGISTER@@@Z 10026598 f   vfp2cassembly.obj
 0001:000255c9       ?Add@RuntimeAssembler@@QAEXW4_REGISTER@@0@Z 100265c9 f   vfp2cassembly.obj
 0001:000255fa       ?Add@RuntimeAssembler@@QAEXW4_REGISTER@@I@Z 100265fa f   vfp2cassembly.obj
 0001:00025680       ?Add@RuntimeAssembler@@QAEXW4_REGISTER@@H@Z 10026680 f   vfp2cassembly.obj
 0001:00025725       ?Sub@RuntimeAssembler@@QAEXW4_REGISTER@@0@Z 10026725 f   vfp2cassembly.obj
 0001:00025756       ?Sub@RuntimeAssembler@@QAEXW4_REGISTER@@I@Z 10026756 f   vfp2cassembly.obj
 0001:000257a6       ?Sub@RuntimeAssembler@@QAEXW4_REGISTER@@H@Z 100267a6 f   vfp2cassembly.obj
 0001:00025851       ?Pop@RuntimeAssembler@@QAEXW4_REGISTER@@@Z 10026851 f   vfp2cassembly.obj
 0001:0002586f       ?Push@RuntimeAssembler@@QAEXPADW4_TYPE@@H@Z 1002686f f   vfp2cassembly.obj
 0001:00025896       ?Push@RuntimeAssembler@@QAEXW4_PARAMNO@@W4_TYPE@@H@Z 10026896 f   vfp2cassembly.obj
 0001:000258b8       ?Push@RuntimeAssembler@@QAEXPAD@Z 100268b8 f   vfp2cassembly.obj
 0001:000258da       ?Push@RuntimeAssembler@@QAEXW4_PARAMNO@@@Z 100268da f   vfp2cassembly.obj
 0001:000258f5       ?Push@RuntimeAssembler@@QAEXW4_REGISTER@@@Z 100268f5 f   vfp2cassembly.obj
 0001:00025917       ?Epilog@RuntimeAssembler@@QAEX_N@Z 10026917 f   vfp2cassembly.obj
 0001:00025947       ?Prolog@RuntimeAssembler@@QAEXXZ 10026947 f   vfp2cassembly.obj
 0001:00025982       ?Call@RuntimeAssembler@@QAEXP6GXXZ@Z 10026982 f   vfp2cassembly.obj
 0001:00025995       ?Call@RuntimeAssembler@@QAEXW4_REGISTER@@P6GXXZ@Z 10026995 f   vfp2cassembly.obj
 0001:000259ae       ?Jmp@RuntimeAssembler@@QAEXW4_REGISTER@@PAX@Z 100269ae f   vfp2cassembly.obj
 0001:000259c7       ?Mov@RuntimeAssembler@@QAEXW4_REGISTER@@PADW4_TYPE@@H@Z 100269c7 f   vfp2cassembly.obj
 0001:000259f1       ?Mov@RuntimeAssembler@@QAEXW4_REGISTER@@W4_PARAMNO@@W4_TYPE@@H@Z 100269f1 f   vfp2cassembly.obj
 0001:00025a18       ?Mov@RuntimeAssembler@@QAEXW4_REGISTER@@PAD@Z 10026a18 f   vfp2cassembly.obj
 0001:00025a3f       ?Mov@RuntimeAssembler@@QAEXW4_REGISTER@@W4_PARAMNO@@@Z 10026a3f f   vfp2cassembly.obj
 0001:00025a62       ?Lea@RuntimeAssembler@@QAEXW4_REGISTER@@W4_PARAMNO@@H@Z 10026a62 f   vfp2cassembly.obj
 0001:00025a84       ?Lea@RuntimeAssembler@@QAEXW4_REGISTER@@PADH@Z 10026a84 f   vfp2cassembly.obj
 0001:00025aab       ?Shr@RuntimeAssembler@@QAEXW4_REGISTER@@H@Z 10026aab f   vfp2cassembly.obj
 0001:00025ab3       ?Shl@RuntimeAssembler@@QAEXW4_REGISTER@@H@Z 10026ab3 f   vfp2cassembly.obj
 0001:00025abb       ?Sar@RuntimeAssembler@@QAEXW4_REGISTER@@H@Z 10026abb f   vfp2cassembly.obj
 0001:00025ac3       ?Sal@RuntimeAssembler@@QAEXW4_REGISTER@@H@Z 10026ac3 f   vfp2cassembly.obj
 0001:00025acb       @DT2Double@4               10026acb f   vfp2ctime.obj
 0001:00025ad9       @GetSystemTimeLib@4        10026ad9 f   vfp2ctime.obj
 0001:00025b2f       @Double2DT@4               10026b2f f   vfp2ctime.obj
 0001:00025b5a       @SetSystemTimeLib@4        10026b5a f   vfp2ctime.obj
 0001:00025c3a       @ATimeZones@4              10026c3a f   vfp2ctime.obj
 0001:00026029       @Timet2DT@4                10027029 f   vfp2ctime.obj
 0001:00026136       @DT2ST@4                   10027136 f   vfp2ctime.obj
 0001:000261c6       @DT2FT@4                   100271c6 f   vfp2ctime.obj
 0001:0002621b       @DT2Timet@4                1002721b f   vfp2ctime.obj
 0001:00026399       @UTC2DT@4                  10027399 f   vfp2ctime.obj
 0001:000263ca       @DT2UTC@4                  100273ca f   vfp2ctime.obj
 0001:000263fb       @ST2DT@4                   100273fb f   vfp2ctime.obj
 0001:00026464       @FT2DT@4                   10027464 f   vfp2ctime.obj
 0001:000264cd       ?SignalThreadAbort@RasNotifyThread@@UAEXXZ 100274cd f   vfp2cras.obj
 0001:000264d7       ?SetCallback@RasDialCallback@@QAEXAAVFoxString@@@Z 100274d7 f   vfp2cras.obj
 0001:000264e4       ?SetCallback@RasPhonebookDlgCallback@@QAEXAAVFoxString@@@Z 100274e4 f   vfp2cras.obj
 0001:000264f1       _SaveRas32Error@8          100274f1 f   vfp2cras.obj
 0001:00026541       ?VFP2C_Init_Ras@@YGHXZ     10027541 f   vfp2cras.obj
 0001:000266b8       @RasClearConnectionStatisticsEx@4 100276b8 f   vfp2cras.obj
 0001:0002674b       @AbortRasConnectionNotificationEx@4 1002774b f   vfp2cras.obj
 0001:000267b0       ?Run@RasNotifyThread@@UAEKXZ 100277b0 f   vfp2cras.obj
 0001:00026875       ?Setup@RasNotifyThread@@QAE_NPAUHRASCONN__@@KAAVFoxString@@@Z 10027875 f   vfp2cras.obj
 0001:000268bd       ?Release@RasNotifyThread@@UAEXXZ 100278bd f   vfp2cras.obj
 0001:000268ca       @RasGetConnectStatusEx@4   100278ca f   vfp2cras.obj
 0001:00026a76       @RasHangUpEx@4             10027a76 f   vfp2cras.obj
 0001:00026b81       @RasDialDlgEx@4            10027b81 f   vfp2cras.obj
 0001:00026cd3       ?Callback@RasDialCallback@@QAEKKPAUHRASCONN__@@IW4tagRASCONNSTATE@@KK@Z 10027cd3 f   vfp2cras.obj
 0001:00026d53       ?Callback@RasPhonebookDlgCallback@@QAEXKPAX@Z 10027d53 f   vfp2cras.obj
 0001:00026d77       ?CallbackTxt@RasPhonebookDlgCallback@@QAEXKPAD@Z 10027d77 f   vfp2cras.obj
 0001:00026d9b       ?RasPhonebookDlgCallbackFunc@RasPhonebookDlgCallback@@SGXKKPADPAX@Z 10027d9b f   vfp2cras.obj
 0001:00026dcd       @ARasPhonebookEntries@4    10027dcd f   vfp2cras.obj
 0001:00026fd1       @ARasDevices@4             10027fd1 f   vfp2cras.obj
 0001:000271a3       @ARasConnections@4         100281a3 f   vfp2cras.obj
 0001:00027454       @RasConnectionNotificationEx@4 10028454 f   vfp2cras.obj
 0001:000275bf       ?RasDialCallbackFunc@RasDialCallback@@SGKKKPAUHRASCONN__@@IW4tagRASCONNSTATE@@KK@Z 100285bf f   vfp2cras.obj
 0001:00027611       @RasPhonebookDlgEx@4       10028611 f   vfp2cras.obj
 0001:000277c2       @RasDialEx@4               100287c2 f   vfp2cras.obj
 0001:00027ba3       @Str2Float@4               10028ba3 f   vfp2cconv.obj
 0001:00027bb7       @Str2Double@4              10028bb7 f   vfp2cconv.obj
 0001:00027bcc       @Str2ULong@4               10028bcc f   vfp2cconv.obj
 0001:00027bdb       @Str2Long@4                10028bdb f   vfp2cconv.obj
 0001:00027bed       @Str2UShort@4              10028bed f   vfp2cconv.obj
 0001:00027c00       @Str2Short@4               10028c00 f   vfp2cconv.obj
 0001:00027c13       @OsEx@4                    10028c13 f   vfp2cconv.obj
 0001:00027c21       @Decimals@4                10028c21 f   vfp2cconv.obj
 0001:00027c2c       @Colors2RGB@4              10028c2c f   vfp2cconv.obj
 0001:00027c5a       @Str2UInt64@4              10028c5a f   vfp2cconv.obj
 0001:00027cb8       @UInt642Str@4              10028cb8 f   vfp2cconv.obj
 0001:00027d11       @Str2Int64@4               10028d11 f   vfp2cconv.obj
 0001:00027d6f       @Int642Str@4               10028d6f f   vfp2cconv.obj
 0001:00027dc8       @Float2Str@4               10028dc8 f   vfp2cconv.obj
 0001:00027e0d       @Double2Str@4              10028e0d f   vfp2cconv.obj
 0001:00027e52       @ULong2Str@4               10028e52 f   vfp2cconv.obj
 0001:00027ec8       @Long2Str@4                10028ec8 f   vfp2cconv.obj
 0001:00027f0d       @UShort2Str@4              10028f0d f   vfp2cconv.obj
 0001:00027f54       @Short2Str@4               10028f54 f   vfp2cconv.obj
 0001:00027f9b       @GetLocaleInfoExLib@4      10028f9b f   vfp2cconv.obj
 0001:00028096       @ReleasePublicShadowObjReference@4 10029096 f   vfp2cconv.obj
 0001:00028113       @CreatePublicShadowObjReference@4 10029113 f   vfp2cconv.obj
 0001:00028186       @Num2Binary@4              10029186 f   vfp2cconv.obj
 0001:0002822b       @Value2Variant@4           1002922b f   vfp2cconv.obj
 0001:00028338       @Int64_Mod@4               10029338 f   vfp2cconv.obj
 0001:000283d2       @Int64_Div@4               100293d2 f   vfp2cconv.obj
 0001:00028492       @Int64_Mul@4               10029492 f   vfp2cconv.obj
 0001:0002852e       @Int64_Sub@4               1002952e f   vfp2cconv.obj
 0001:000285c5       @Int64_Add@4               100295c5 f   vfp2cconv.obj
 0001:0002865c       @GetCursorPosEx@4          1002965c f   vfp2cconv.obj
 0001:00028803       @RGB2Colors@4              10029803 f   vfp2cconv.obj
 0001:000288a3       @Variant2Value@4           100298a3 f   vfp2cconv.obj
 0001:00028a41       @PG_Str2ByteA@4            10029a41 f   vfp2cconv.obj
 0001:00028bdd       @PG_ByteA2Str@4            10029bdd f   vfp2cconv.obj
 0001:00028d56       _Win32ErrorHandler@16      10029d56 f   vfp2c32.obj
 0001:00028dc9       @FormatMessageEx@4         10029dc9 f   vfp2c32.obj
 0001:00028e98       @VFP2CSys@4                10029e98 f   vfp2c32.obj
 0001:00028f97       _CustomErrorHandlerEx@24   10029f97 f   vfp2c32.obj
 0001:00029004       _CustomErrorHandler@20     1002a004 f   vfp2c32.obj
 0001:00029072       @AErrorEx@4                1002a072 f   vfp2c32.obj
 0001:00029202       _RaiseCustomErrorEx        1002a202 f   vfp2c32.obj
 0001:0002921d       _AddCustomErrorEx          1002a21d f   vfp2c32.obj
 0001:00029238       _SaveCustomErrorEx         1002a238 f   vfp2c32.obj
 0001:00029253       _RaiseCustomError          1002a253 f   vfp2c32.obj
 0001:0002926a       _AddCustomError            1002a26a f   vfp2c32.obj
 0001:00029281       _SaveCustomError           1002a281 f   vfp2c32.obj
 0001:00029298       @OnUnload@0                1002a298 f   vfp2c32.obj
 0001:000292c1       @OnLoad@0                  1002a2c1 f   vfp2c32.obj
 0001:000292e9       @MessageBoxExLib@4         1002a2e9 f   vfp2cwindows.obj
 0001:00029557       @CenterWindowEx@4          1002a557 f   vfp2cwindows.obj
 0001:00029774       @GetWindowTextEx@4         1002a774 f   vfp2cwindows.obj
 0001:00029878       @ADesktopArea@4            1002a878 f   vfp2cwindows.obj
 0001:0002995e       @GetWindowRectEx@4         1002a95e f   vfp2cwindows.obj
 0001:00029a45       @CloseRegistryKey@4        1002aa45 f   vfp2cregistry.obj
 0001:00029a6f       _RegistryHiveSubroutine@12 1002aa6f f   vfp2cregistry.obj
 0001:00029edb       @RegistryHiveToObject@4    1002aedb f   vfp2cregistry.obj
 0001:00029f56       @RegistryValuesToObject@4  1002af56 f   vfp2cregistry.obj
 0001:0002a2db       @ARegistryValues@4         1002b2db f   vfp2cregistry.obj
 0001:0002a72b       @ARegistryKeys@4           1002b72b f   vfp2cregistry.obj
 0001:0002a9c6       @ReadRegistryKey@4         1002b9c6 f   vfp2cregistry.obj
 0001:0002ad97       @OpenRegistryKey@4         1002bd97 f   vfp2cregistry.obj
 0001:0002ae37       @DeleteRegistryKey@4       1002be37 f   vfp2cregistry.obj
 0001:0002aeac       @CreateRegistryKey@4       1002beac f   vfp2cregistry.obj
 0001:0002af88       @WriteRegistryKey@4        1002bf88 f   vfp2cregistry.obj
 0001:0002b391       @ReadProcessMemoryEx@4     1002c391 f   vfp2cenum.obj
 0001:0002b402       _WindowEnumCallbackCall@8  1002c402 f   vfp2cenum.obj
 0001:0002b473       @ADisplayDevices@4         1002c473 f   vfp2cenum.obj
 0001:0002b612       @AResolutions@4            1002c612 f   vfp2cenum.obj
 0001:0002b79b       _ResourceLangEnumCallback@20 1002c79b f   vfp2cenum.obj
 0001:0002b7ba       @AResourceLanguages@4      1002c7ba f   vfp2cenum.obj
 0001:0002b930       _ResourceNamesEnumCallback@16 1002c930 f   vfp2cenum.obj
 0001:0002b96e       @AResourceNames@4          1002c96e f   vfp2cenum.obj
 0001:0002ba9b       _ResourceTypesEnumCallback@12 1002ca9b f   vfp2cenum.obj
 0001:0002badf       @AResourceTypes@4          1002cadf f   vfp2cenum.obj
 0001:0002bbaa       @AHeapBlocks@4             1002cbaa f   vfp2cenum.obj
 0001:0002bd29       @AProcessHeaps@4           1002cd29 f   vfp2cenum.obj
 0001:0002bec4       @AProcessModules@4         1002cec4 f   vfp2cenum.obj
 0001:0002c113       @AProcessThreads@4         1002d113 f   vfp2cenum.obj
 0001:0002c2db       @AProcesses@4              1002d2db f   vfp2cenum.obj
 0001:0002c52e       _MonitorEnumCallback@16    1002d52e f   vfp2cenum.obj
 0001:0002c658       @AMonitors@4               1002d658 f   vfp2cenum.obj
 0001:0002c711       _WindowPropEnumCallback@16 1002d711 f   vfp2cenum.obj
 0001:0002c774       @AWindowProps@4            1002d774 f   vfp2cenum.obj
 0001:0002c80d       _WindowEnumCallbackEx@8    1002d80d f   vfp2cenum.obj
 0001:0002ca8c       @AWindowsEx@4              1002da8c f   vfp2cenum.obj
 0001:0002cd42       _WindowEnumCallback@8      1002dd42 f   vfp2cenum.obj
 0001:0002cd60       @AWindows@4                1002dd60 f   vfp2cenum.obj
 0001:0002cf49       _DesktopEnumCallback@8     1002df49 f   vfp2cenum.obj
 0001:0002cf77       @ADesktops@4               1002df77 f   vfp2cenum.obj
 0001:0002d03d       _WindowStationEnumCallback@8 1002e03d f   vfp2cenum.obj
 0001:0002d06b       @AWindowStations@4         1002e06b f   vfp2cenum.obj
 0001:0002d11f       @AMin@4                    1002e11f f   vfp2carray.obj
 0001:0002d2fa       @AMax@4                    1002e2fa f   vfp2carray.obj
 0001:0002d4ca       @AAverage@4                1002e4ca f   vfp2carray.obj
 0001:0002d737       @ASum@4                    1002e737 f   vfp2carray.obj
 0001:0002d90a       @ASplitStr@4               1002e90a f   vfp2carray.obj
 0001:0002da69       @APrinterTrays@4           1002ea69 f   vfp2cprint.obj
 0001:0002dc91       @APaperSizes@4             1002ec91 f   vfp2cprint.obj
 0001:0002e04f       @APrinterForms@4           1002f04f f   vfp2cprint.obj
 0001:0002e32d       @APrintJobs@4              1002f32d f   vfp2cprint.obj
 0001:0002edf9       @APrintersEx@4             1002fdf9 f   vfp2cprint.obj
 0001:0002f918       __ftol2                    10030918 f   MSVCRT:ftol2.obj
 0001:0002f990       __aulldvrm                 10030990 f   MSVCRT:ulldvrm.obj
 0001:0002fa30       __allmul                   10030a30 f   MSVCRT:llmul.obj
 0001:0002fa70       __alldvrm                  10030a70 f   MSVCRT:lldvrm.obj
 0001:0002fb50       __alldiv                   10030b50 f   MSVCRT:lldiv.obj
 0001:0002fbfa       __CxxThrowException@8      10030bfa f   MSVCRT:MSVCR71.dll
 0001:0002fc00       ___CxxFrameHandler         10030c00 f   MSVCRT:MSVCR71.dll
 0001:0002fc08       __EH_prolog                10030c08 f   MSVCRT:ehprolog.obj
 0001:0002fc30       __alloca_probe             10030c30     MSVCRT:chkstk.obj
 0001:0002fc30       __chkstk                   10030c30 f   MSVCRT:chkstk.obj
 0001:0002fc70       __allrem                   10030c70 f   MSVCRT:llrem.obj
 0001:0002fd30       __aulldiv                  10030d30 f   MSVCRT:ulldiv.obj
 0002:00000000       __imp__RegOpenKeyExA@20    10033000     advapi32:ADVAPI32.dll
 0002:00000004       __imp__RegNotifyChangeKeyValue@20 10033004     advapi32:ADVAPI32.dll
 0002:00000008       __imp__RegCloseKey@4       10033008     advapi32:ADVAPI32.dll
 0002:0000000c       __imp__QueryServiceConfigA@16 1003300c     advapi32:ADVAPI32.dll
 0002:00000010       __imp__OpenSCManagerA@12   10033010     advapi32:ADVAPI32.dll
 0002:00000014       __imp__QueryServiceStatus@8 10033014     advapi32:ADVAPI32.dll
 0002:00000018       __imp__StartServiceA@12    10033018     advapi32:ADVAPI32.dll
 0002:0000001c       __imp__EnumServicesStatusExA@40 1003301c     advapi32:ADVAPI32.dll
 0002:00000020       __imp__CreateServiceA@52   10033020     advapi32:ADVAPI32.dll
 0002:00000024       __imp__EnumDependentServicesA@24 10033024     advapi32:ADVAPI32.dll
 0002:00000028       __imp__DeleteService@4     10033028     advapi32:ADVAPI32.dll
 0002:0000002c       __imp__CloseServiceHandle@4 1003302c     advapi32:ADVAPI32.dll
 0002:00000030       __imp__GetKernelObjectSecurity@20 10033030     advapi32:ADVAPI32.dll
 0002:00000034       __imp__LookupAccountSidA@28 10033034     advapi32:ADVAPI32.dll
 0002:00000038       __imp__GetSecurityDescriptorOwner@12 10033038     advapi32:ADVAPI32.dll
 0002:0000003c       __imp__RegSetValueExA@24   1003303c     advapi32:ADVAPI32.dll
 0002:00000040       __imp__RegQueryValueExA@24 10033040     advapi32:ADVAPI32.dll
 0002:00000044       __imp__RegDeleteKeyA@8     10033044     advapi32:ADVAPI32.dll
 0002:00000048       __imp__RegEnumKeyExA@32    10033048     advapi32:ADVAPI32.dll
 0002:0000004c       __imp__RegCreateKeyExA@36  1003304c     advapi32:ADVAPI32.dll
 0002:00000050       __imp__OpenServiceA@12     10033050     advapi32:ADVAPI32.dll
 0002:00000054       __imp__RegEnumValueA@32    10033054     advapi32:ADVAPI32.dll
 0002:00000058       __imp__RegQueryInfoKeyA@48 10033058     advapi32:ADVAPI32.dll
 0002:0000005c       __imp__ControlService@12   1003305c     advapi32:ADVAPI32.dll
 0002:00000060       \177ADVAPI32_NULL_THUNK_DATA 10033060     advapi32:ADVAPI32.dll
 0002:00000064       __imp__InterlockedExchange@8 10033064     kernel32:KERNEL32.dll
 0002:00000068       __imp__GetLastError@0      10033068     kernel32:KERNEL32.dll
 0002:0000006c       __imp__GetThreadLocale@0   1003306c     kernel32:KERNEL32.dll
 0002:00000070       __imp__IsValidCodePage@4   10033070     kernel32:KERNEL32.dll
 0002:00000074       __imp__GetModuleHandleA@4  10033074     kernel32:KERNEL32.dll
 0002:00000078       __imp__DeleteCriticalSection@4 10033078     kernel32:KERNEL32.dll
 0002:0000007c       __imp__GetVersionExA@4     1003307c     kernel32:KERNEL32.dll
 0002:00000080       __imp__CreateFileA@28      10033080     kernel32:KERNEL32.dll
 0002:00000084       __imp__InterlockedIncrement@4 10033084     kernel32:KERNEL32.dll
 0002:00000088       __imp__GetQueuedCompletionStatus@20 10033088     kernel32:KERNEL32.dll
 0002:0000008c       __imp__InterlockedDecrement@4 1003308c     kernel32:KERNEL32.dll
 0002:00000090       __imp__FindCloseChangeNotification@4 10033090     kernel32:KERNEL32.dll
 0002:00000094       __imp__SetEvent@4          10033094     kernel32:KERNEL32.dll
 0002:00000098       __imp__ReadDirectoryChangesW@32 10033098     kernel32:KERNEL32.dll
 0002:0000009c       __imp__CreateEventA@16     1003309c     kernel32:KERNEL32.dll
 0002:000000a0       __imp__GetLongPathNameA@12 100330a0     kernel32:KERNEL32.dll
 0002:000000a4       __imp__InterlockedExchangeAdd@8 100330a4     kernel32:KERNEL32.dll
 0002:000000a8       __imp__PostQueuedCompletionStatus@16 100330a8     kernel32:KERNEL32.dll
 0002:000000ac       __imp__FindNextChangeNotification@4 100330ac     kernel32:KERNEL32.dll
 0002:000000b0       __imp__WaitForMultipleObjects@16 100330b0     kernel32:KERNEL32.dll
 0002:000000b4       __imp__CreateIoCompletionPort@16 100330b4     kernel32:KERNEL32.dll
 0002:000000b8       __imp__FindFirstChangeNotificationA@12 100330b8     kernel32:KERNEL32.dll
 0002:000000bc       __imp__CancelIo@4          100330bc     kernel32:KERNEL32.dll
 0002:000000c0       __imp__CloseHandle@4       100330c0     kernel32:KERNEL32.dll
 0002:000000c4       __imp__QueryPerformanceCounter@4 100330c4     kernel32:KERNEL32.dll
 0002:000000c8       __imp__WaitForSingleObject@8 100330c8     kernel32:KERNEL32.dll
 0002:000000cc       __imp__WideCharToMultiByte@32 100330cc     kernel32:KERNEL32.dll
 0002:000000d0       __imp__MultiByteToWideChar@24 100330d0     kernel32:KERNEL32.dll
 0002:000000d4       __imp__lstrlenW@4          100330d4     kernel32:KERNEL32.dll
 0002:000000d8       __imp__ResetEvent@4        100330d8     kernel32:KERNEL32.dll
 0002:000000dc       __imp__QueryPerformanceFrequency@4 100330dc     kernel32:KERNEL32.dll
 0002:000000e0       __imp__HeapAlloc@12        100330e0     kernel32:KERNEL32.dll
 0002:000000e4       __imp__HeapFree@12         100330e4     kernel32:KERNEL32.dll
 0002:000000e8       __imp__HeapDestroy@4       100330e8     kernel32:KERNEL32.dll
 0002:000000ec       __imp__HeapCreate@12       100330ec     kernel32:KERNEL32.dll
 0002:000000f0       __imp__GetCurrentThreadId@0 100330f0     kernel32:KERNEL32.dll
 0002:000000f4       __imp__GetModuleFileNameA@12 100330f4     kernel32:KERNEL32.dll
 0002:000000f8       __imp__SystemTimeToFileTime@8 100330f8     kernel32:KERNEL32.dll
 0002:000000fc       __imp__FileTimeToSystemTime@8 100330fc     kernel32:KERNEL32.dll
 0002:00000100       __imp__GetTimeZoneInformation@4 10033100     kernel32:KERNEL32.dll
 0002:00000104       __imp__FileTimeToLocalFileTime@8 10033104     kernel32:KERNEL32.dll
 0002:00000108       __imp__Heap32ListNext@8    10033108     kernel32:KERNEL32.dll
 0002:0000010c       __imp__Heap32Next@4        1003310c     kernel32:KERNEL32.dll
 0002:00000110       __imp__Process32First@8    10033110     kernel32:KERNEL32.dll
 0002:00000114       __imp__Heap32First@12      10033114     kernel32:KERNEL32.dll
 0002:00000118       __imp__Heap32ListFirst@8   10033118     kernel32:KERNEL32.dll
 0002:0000011c       __imp__IsBadReadPtr@8      1003311c     kernel32:KERNEL32.dll
 0002:00000120       __imp__EnumResourceTypesA@12 10033120     kernel32:KERNEL32.dll
 0002:00000124       __imp__Thread32First@8     10033124     kernel32:KERNEL32.dll
 0002:00000128       __imp__Thread32Next@8      10033128     kernel32:KERNEL32.dll
 0002:0000012c       __imp__EnumResourceLanguagesA@20 1003312c     kernel32:KERNEL32.dll
 0002:00000130       __imp__Module32First@8     10033130     kernel32:KERNEL32.dll
 0002:00000134       __imp__Process32Next@8     10033134     kernel32:KERNEL32.dll
 0002:00000138       __imp__Toolhelp32ReadProcessMemory@20 10033138     kernel32:KERNEL32.dll
 0002:0000013c       __imp__EnumResourceNamesA@16 1003313c     kernel32:KERNEL32.dll
 0002:00000140       __imp__CreateToolhelp32Snapshot@8 10033140     kernel32:KERNEL32.dll
 0002:00000144       __imp__Module32Next@8      10033144     kernel32:KERNEL32.dll
 0002:00000148       __imp__FindVolumeClose@4   10033148     kernel32:KERNEL32.dll
 0002:0000014c       __imp__SetFilePointer@16   1003314c     kernel32:KERNEL32.dll
 0002:00000150       __imp__SetEndOfFile@4      10033150     kernel32:KERNEL32.dll
 0002:00000154       __imp__SetErrorMode@4      10033154     kernel32:KERNEL32.dll
 0002:00000158       __imp__SetFilePointerEx@20 10033158     kernel32:KERNEL32.dll
 0002:0000015c       __imp__GetACP@0            1003315c     kernel32:KERNEL32.dll
 0002:00000160       __imp__GetLogicalDrives@0  10033160     kernel32:KERNEL32.dll
 0002:00000164       __imp__LockFile@20         10033164     kernel32:KERNEL32.dll
 0002:00000168       __imp__GetFileAttributesExA@12 10033168     kernel32:KERNEL32.dll
 0002:0000016c       __imp__UnlockFileEx@20     1003316c     kernel32:KERNEL32.dll
 0002:00000170       __imp__FindNextVolumeMountPointA@12 10033170     kernel32:KERNEL32.dll
 0002:00000174       __imp__ExpandEnvironmentStringsA@12 10033174     kernel32:KERNEL32.dll
 0002:00000178       __imp__SetFileTime@16      10033178     kernel32:KERNEL32.dll
 0002:0000017c       __imp__GetWindowsDirectoryA@8 1003317c     kernel32:KERNEL32.dll
 0002:00000180       __imp__WriteFile@20        10033180     kernel32:KERNEL32.dll
 0002:00000184       __imp__GetDriveTypeA@4     10033184     kernel32:KERNEL32.dll
 0002:00000188       __imp__GetVolumeInformationA@32 10033188     kernel32:KERNEL32.dll
 0002:0000018c       __imp__GetFileAttributesA@4 1003318c     kernel32:KERNEL32.dll
 0002:00000190       __imp__GetFileAttributesW@4 10033190     kernel32:KERNEL32.dll
 0002:00000194       __imp__ReadFile@20         10033194     kernel32:KERNEL32.dll
 0002:00000198       __imp__GetSystemDirectoryA@8 10033198     kernel32:KERNEL32.dll
 0002:0000019c       __imp__CreateFileW@28      1003319c     kernel32:KERNEL32.dll
 0002:000001a0       __imp__GetVolumePathNameA@12 100331a0     kernel32:KERNEL32.dll
 0002:000001a4       __imp__FlushFileBuffers@4  100331a4     kernel32:KERNEL32.dll
 0002:000001a8       __imp__GetShortPathNameA@12 100331a8     kernel32:KERNEL32.dll
 0002:000001ac       __imp__CreateDirectoryA@8  100331ac     kernel32:KERNEL32.dll
 0002:000001b0       __imp__GetFileSizeEx@8     100331b0     kernel32:KERNEL32.dll
 0002:000001b4       __imp__FindFirstFileA@8    100331b4     kernel32:KERNEL32.dll
 0002:000001b8       __imp__GetProcAddress@8    100331b8     kernel32:KERNEL32.dll
 0002:000001bc       __imp__FindVolumeMountPointClose@4 100331bc     kernel32:KERNEL32.dll
 0002:000001c0       __imp__RemoveDirectoryA@4  100331c0     kernel32:KERNEL32.dll
 0002:000001c4       __imp__LockFileEx@24       100331c4     kernel32:KERNEL32.dll
 0002:000001c8       __imp__SetFileAttributesA@8 100331c8     kernel32:KERNEL32.dll
 0002:000001cc       __imp__FindClose@4         100331cc     kernel32:KERNEL32.dll
 0002:000001d0       __imp__MoveFileA@8         100331d0     kernel32:KERNEL32.dll
 0002:000001d4       __imp__DeviceIoControl@32  100331d4     kernel32:KERNEL32.dll
 0002:000001d8       __imp__FindNextFileA@8     100331d8     kernel32:KERNEL32.dll
 0002:000001dc       __imp__FindFirstVolumeMountPointA@12 100331dc     kernel32:KERNEL32.dll
 0002:000001e0       __imp__GetFileTime@16      100331e0     kernel32:KERNEL32.dll
 0002:000001e4       __imp__FindFirstVolumeA@8  100331e4     kernel32:KERNEL32.dll
 0002:000001e8       __imp__DeleteFileW@4       100331e8     kernel32:KERNEL32.dll
 0002:000001ec       __imp__GetFileInformationByHandle@8 100331ec     kernel32:KERNEL32.dll
 0002:000001f0       __imp__FindNextVolumeA@12  100331f0     kernel32:KERNEL32.dll
 0002:000001f4       __imp__SetFileAttributesW@8 100331f4     kernel32:KERNEL32.dll
 0002:000001f8       __imp__DeleteFileA@4       100331f8     kernel32:KERNEL32.dll
 0002:000001fc       __imp__GetSystemDefaultLangID@0 100331fc     kernel32:KERNEL32.dll
 0002:00000200       __imp__InitializeCriticalSectionAndSpinCount@8 10033200     kernel32:KERNEL32.dll
 0002:00000204       __imp__LeaveCriticalSection@4 10033204     kernel32:KERNEL32.dll
 0002:00000208       __imp__EnterCriticalSection@4 10033208     kernel32:KERNEL32.dll
 0002:0000020c       __imp__GetSystemInfo@4     1003320c     kernel32:KERNEL32.dll
 0002:00000210       __imp__CreateThread@24     10033210     kernel32:KERNEL32.dll
 0002:00000214       __imp__LoadLibraryA@4      10033214     kernel32:KERNEL32.dll
 0002:00000218       __imp__HeapReAlloc@16      10033218     kernel32:KERNEL32.dll
 0002:0000021c       __imp__InitializeCriticalSection@4 1003321c     kernel32:KERNEL32.dll
 0002:00000220       __imp__lstrlenA@4          10033220     kernel32:KERNEL32.dll
 0002:00000224       __imp__GlobalLock@4        10033224     kernel32:KERNEL32.dll
 0002:00000228       __imp__GlobalAlloc@8       10033228     kernel32:KERNEL32.dll
 0002:0000022c       __imp__HeapValidate@12     1003322c     kernel32:KERNEL32.dll
 0002:00000230       __imp__GlobalUnlock@4      10033230     kernel32:KERNEL32.dll
 0002:00000234       __imp__HeapSize@12         10033234     kernel32:KERNEL32.dll
 0002:00000238       __imp__GlobalFree@4        10033238     kernel32:KERNEL32.dll
 0002:0000023c       __imp__HeapWalk@8          1003323c     kernel32:KERNEL32.dll
 0002:00000240       __imp__GlobalReAlloc@12    10033240     kernel32:KERNEL32.dll
 0002:00000244       __imp__Sleep@4             10033244     kernel32:KERNEL32.dll
 0002:00000248       __imp__GetTickCount@0      10033248     kernel32:KERNEL32.dll
 0002:0000024c       __imp__SetSystemTime@4     1003324c     kernel32:KERNEL32.dll
 0002:00000250       __imp__GetSystemTime@4     10033250     kernel32:KERNEL32.dll
 0002:00000254       __imp__SetLocalTime@4      10033254     kernel32:KERNEL32.dll
 0002:00000258       __imp__GetLocalTime@4      10033258     kernel32:KERNEL32.dll
 0002:0000025c       __imp__LocalFileTimeToFileTime@8 1003325c     kernel32:KERNEL32.dll
 0002:00000260       __imp__FreeLibrary@4       10033260     kernel32:KERNEL32.dll
 0002:00000264       __imp__GetUserDefaultUILanguage@0 10033264     kernel32:KERNEL32.dll
 0002:00000268       __imp__GetProcessHeap@0    10033268     kernel32:KERNEL32.dll
 0002:0000026c       __imp__TlsSetValue@8       1003326c     kernel32:KERNEL32.dll
 0002:00000270       __imp__TlsGetValue@4       10033270     kernel32:KERNEL32.dll
 0002:00000274       __imp__TlsAlloc@0          10033274     kernel32:KERNEL32.dll
 0002:00000278       __imp__DisableThreadLibraryCalls@4 10033278     kernel32:KERNEL32.dll
 0002:0000027c       __imp__GlobalSize@4        1003327c     kernel32:KERNEL32.dll
 0002:00000280       __imp__TlsFree@4           10033280     kernel32:KERNEL32.dll
 0002:00000284       __imp__FormatMessageA@28   10033284     kernel32:KERNEL32.dll
 0002:00000288       __imp__GetLocaleInfoA@16   10033288     kernel32:KERNEL32.dll
 0002:0000028c       __imp__LocalFree@4         1003328c     kernel32:KERNEL32.dll
 0002:00000290       __imp__LocalUnlock@4       10033290     kernel32:KERNEL32.dll
 0002:00000294       __imp__LocalLock@4         10033294     kernel32:KERNEL32.dll
 0002:00000298       __imp__LocalAlloc@8        10033298     kernel32:KERNEL32.dll
 0002:0000029c       __imp__MoveFileExA@12      1003329c     kernel32:KERNEL32.dll
 0002:000002a0       __imp__GetFileSize@8       100332a0     kernel32:KERNEL32.dll
 0002:000002a4       __imp__ExitProcess@4       100332a4     kernel32:KERNEL32.dll
 0002:000002a8       __imp__GetCurrentProcessId@0 100332a8     kernel32:KERNEL32.dll
 0002:000002ac       __imp__GetSystemTimeAsFileTime@4 100332ac     kernel32:KERNEL32.dll
 0002:000002b0       __imp__UnlockFile@20       100332b0     kernel32:KERNEL32.dll
 0002:000002b4       __imp__HeapCompact@8       100332b4     kernel32:KERNEL32.dll
 0002:000002b8       \177KERNEL32_NULL_THUNK_DATA 100332b8     kernel32:KERNEL32.dll
 0002:000002bc       __imp__strstr              100332bc     MSVCRT:MSVCR71.dll
 0002:000002c0       __imp___strlwr             100332c0     MSVCRT:MSVCR71.dll
 0002:000002c4       __imp__modf                100332c4     MSVCRT:MSVCR71.dll
 0002:000002c8       __imp__sprintf             100332c8     MSVCRT:MSVCR71.dll
 0002:000002cc       __imp__atoi                100332cc     MSVCRT:MSVCR71.dll
 0002:000002d0       __imp___msize              100332d0     MSVCRT:MSVCR71.dll
 0002:000002d4       __imp___stricmp            100332d4     MSVCRT:MSVCR71.dll
 0002:000002d4       __imp__stricmp             100332d4     MSVCRT:MSVCR71.dll
 0002:000002d8       __imp___strupr             100332d8     MSVCRT:MSVCR71.dll
 0002:000002dc       __imp__memcpy              100332dc     MSVCRT:MSVCR71.dll
 0002:000002e0       __imp___beginthreadex      100332e0     MSVCRT:MSVCR71.dll
 0002:000002e4       __imp___errno              100332e4     MSVCRT:MSVCR71.dll
 0002:000002e8       __imp____doserrno          100332e8     MSVCRT:MSVCR71.dll
 0002:000002ec       __imp__memmove             100332ec     MSVCRT:MSVCR71.dll
 0002:000002f0       __imp___wcsicmp            100332f0     MSVCRT:MSVCR71.dll
 0002:000002f4       __imp_??2@YAPAXI@Z         100332f4     MSVCRT:MSVCR71.dll
 0002:000002f8       __imp___purecall           100332f8     MSVCRT:MSVCR71.dll
 0002:000002fc       __imp__malloc              100332fc     MSVCRT:MSVCR71.dll
 0002:00000300       __imp_??_U@YAPAXI@Z        10033300     MSVCRT:MSVCR71.dll
 0002:00000304       __imp_??3@YAXPAX@Z         10033304     MSVCRT:MSVCR71.dll
 0002:00000308       __imp_??_V@YAXPAX@Z        10033308     MSVCRT:MSVCR71.dll
 0002:0000030c       __imp__strncpy             1003330c     MSVCRT:MSVCR71.dll
 0002:00000310       __imp__free                10033310     MSVCRT:MSVCR71.dll
 0002:00000314       __imp__wcslen              10033314     MSVCRT:MSVCR71.dll
 0002:00000318       __imp__floor               10033318     MSVCRT:MSVCR71.dll
 0002:0000031c       __imp__strchr              1003331c     MSVCRT:MSVCR71.dll
 0002:00000320       __imp__strrchr             10033320     MSVCRT:MSVCR71.dll
 0002:00000324       __imp__ceil                10033324     MSVCRT:MSVCR71.dll
 0002:00000328       __imp__longjmp             10033328     MSVCRT:MSVCR71.dll
 0002:0000032c       __imp___setjmp3            1003332c     MSVCRT:MSVCR71.dll
 0002:00000330       __imp__memset              10033330     MSVCRT:MSVCR71.dll
 0002:00000334       __imp___except_handler3    10033334     MSVCRT:MSVCR71.dll
 0002:00000338       __imp_?terminate@@YAXXZ    10033338     MSVCRT:MSVCR71.dll
 0002:0000033c       __imp____CxxFrameHandler   1003333c     MSVCRT:MSVCR71.dll
 0002:00000340       __imp____dllonexit         10033340     MSVCRT:MSVCR71.dll
 0002:00000344       __imp___onexit             10033344     MSVCRT:MSVCR71.dll
 0002:00000348       __imp_??1type_info@@UAE@XZ 10033348     MSVCRT:MSVCR71.dll
 0002:0000034c       __imp___initterm           1003334c     MSVCRT:MSVCR71.dll
 0002:00000350       __imp___adjust_fdiv        10033350     MSVCRT:MSVCR71.dll
 0002:00000354       __imp____CppXcptFilter     10033354     MSVCRT:MSVCR71.dll
 0002:00000358       __imp____security_error_handler 10033358     MSVCRT:MSVCR71.dll
 0002:0000035c       __imp___strdup             1003335c     MSVCRT:MSVCR71.dll
 0002:0000035c       __imp__strdup              1003335c     MSVCRT:MSVCR71.dll
 0002:00000360       __imp___CxxThrowException@8 10033360     MSVCRT:MSVCR71.dll
 0002:00000364       __imp___snprintf           10033364     MSVCRT:MSVCR71.dll
 0002:00000368       \177MSVCR71_NULL_THUNK_DATA 10033368     MSVCRT:MSVCR71.dll
 0002:0000036c       __imp__SQLGetDiagRec@32    1003336c     odbc32:ODBC32.dll
 0002:00000370       __imp__SQLDrivers@32       10033370     odbc32:ODBC32.dll
 0002:00000374       __imp__SQLColAttribute@28  10033374     odbc32:ODBC32.dll
 0002:00000378       __imp__SQLPrepare@12       10033378     odbc32:ODBC32.dll
 0002:0000037c       __imp__SQLGetData@24       1003337c     odbc32:ODBC32.dll
 0002:00000380       __imp__SQLSetDescField@20  10033380     odbc32:ODBC32.dll
 0002:00000384       __imp__SQLAllocHandle@12   10033384     odbc32:ODBC32.dll
 0002:00000388       __imp__SQLFreeHandle@8     10033388     odbc32:ODBC32.dll
 0002:0000038c       __imp__SQLParamData@8      1003338c     odbc32:ODBC32.dll
 0002:00000390       __imp__SQLSetDescRec@40    10033390     odbc32:ODBC32.dll
 0002:00000394       __imp__SQLDataSources@32   10033394     odbc32:ODBC32.dll
 0002:00000398       __imp__SQLGetStmtAttr@20   10033398     odbc32:ODBC32.dll
 0002:0000039c       __imp__SQLDescribeCol@36   1003339c     odbc32:ODBC32.dll
 0002:000003a0       __imp__SQLBindParameter@40 100333a0     odbc32:ODBC32.dll
 0002:000003a4       __imp__SQLGetInfo@20       100333a4     odbc32:ODBC32.dll
 0002:000003a8       __imp__SQLGetConnectAttr@20 100333a8     odbc32:ODBC32.dll
 0002:000003ac       __imp__SQLRowCount@8       100333ac     odbc32:ODBC32.dll
 0002:000003b0       __imp__SQLExecDirect@12    100333b0     odbc32:ODBC32.dll
 0002:000003b4       __imp__SQLSetConnectAttr@16 100333b4     odbc32:ODBC32.dll
 0002:000003b8       __imp__SQLNumResultCols@8  100333b8     odbc32:ODBC32.dll
 0002:000003bc       __imp__SQLFetch@4          100333bc     odbc32:ODBC32.dll
 0002:000003c0       __imp__SQLPutData@12       100333c0     odbc32:ODBC32.dll
 0002:000003c4       __imp__SQLMoreResults@4    100333c4     odbc32:ODBC32.dll
 0002:000003c8       __imp__SQLBindCol@24       100333c8     odbc32:ODBC32.dll
 0002:000003cc       __imp__SQLFreeStmt@8       100333cc     odbc32:ODBC32.dll
 0002:000003d0       __imp__SQLExecute@4        100333d0     odbc32:ODBC32.dll
 0002:000003d4       \177ODBC32_NULL_THUNK_DATA 100333d4     odbc32:ODBC32.dll
 0002:000003d8       __imp__VariantCopy@8       100333d8     oleaut32:OLEAUT32.dll
 0002:000003dc       __imp__SysAllocString@4    100333dc     oleaut32:OLEAUT32.dll
 0002:000003e0       __imp__SysFreeString@4     100333e0     oleaut32:OLEAUT32.dll
 0002:000003e4       __imp__VariantInit@4       100333e4     oleaut32:OLEAUT32.dll
 0002:000003e8       __imp__VariantClear@4      100333e8     oleaut32:OLEAUT32.dll
 0002:000003ec       __imp__SysStringLen@4      100333ec     oleaut32:OLEAUT32.dll
 0002:000003f0       __imp__SafeArrayUnaccessData@4 100333f0     oleaut32:OLEAUT32.dll
 0002:000003f4       __imp__SafeArrayGetVartype@8 100333f4     oleaut32:OLEAUT32.dll
 0002:000003f8       __imp__SafeArrayDestroy@4  100333f8     oleaut32:OLEAUT32.dll
 0002:000003fc       __imp__SafeArrayAccessData@8 100333fc     oleaut32:OLEAUT32.dll
 0002:00000400       __imp__SafeArrayCreateVector@12 10033400     oleaut32:OLEAUT32.dll
 0002:00000404       __imp__RegisterActiveObject@16 10033404     oleaut32:OLEAUT32.dll
 0002:00000408       __imp__RevokeActiveObject@8 10033408     oleaut32:OLEAUT32.dll
 0002:0000040c       __imp__VariantChangeType@16 1003340c     oleaut32:OLEAUT32.dll
 0002:00000410       __imp__VarBstrCmp@16       10033410     oleaut32:OLEAUT32.dll
 0002:00000414       __imp__SysAllocStringByteLen@8 10033414     oleaut32:OLEAUT32.dll
 0002:00000418       \177OLEAUT32_NULL_THUNK_DATA 10033418     oleaut32:OLEAUT32.dll
 0002:0000041c       __imp__SHGetPathFromIDListA@8 1003341c     shell32:SHELL32.dll
 0002:00000420       __imp__SHFileOperationA@4  10033420     shell32:SHELL32.dll
 0002:00000424       __imp__SHBrowseForFolderA@4 10033424     shell32:SHELL32.dll
 0002:00000428       \177SHELL32_NULL_THUNK_DATA 10033428     shell32:SHELL32.dll
 0002:0000042c       __imp__SHDeleteKeyA@8      1003342c     shlwapi:SHLWAPI.dll
 0002:00000430       \177SHLWAPI_NULL_THUNK_DATA 10033430     shlwapi:SHLWAPI.dll
 0002:00000434       __imp__GetMonitorInfoA@8   10033434     user32:USER32.dll
 0002:00000438       __imp__MessageBoxA@16      10033438     user32:USER32.dll
 0002:0000043c       __imp__wsprintfA           1003343c     user32:USER32.dll
 0002:00000440       __imp__UnregisterClassA@8  10033440     user32:USER32.dll
 0002:00000444       __imp__PostMessageA@16     10033444     user32:USER32.dll
 0002:00000448       __imp__DefWindowProcA@16   10033448     user32:USER32.dll
 0002:0000044c       __imp__CreateWindowExA@48  1003344c     user32:USER32.dll
 0002:00000450       __imp__GetClassInfoExA@12  10033450     user32:USER32.dll
 0002:00000454       __imp__RegisterClassExA@4  10033454     user32:USER32.dll
 0002:00000458       __imp__DestroyWindow@4     10033458     user32:USER32.dll
 0002:0000045c       __imp__DispatchMessageA@4  1003345c     user32:USER32.dll
 0002:00000460       __imp__CharLowerBuffA@8    10033460     user32:USER32.dll
 0002:00000464       __imp__PeekMessageA@20     10033464     user32:USER32.dll
 0002:00000468       __imp__MsgWaitForMultipleObjects@20 10033468     user32:USER32.dll
 0002:0000046c       __imp__GetClassLongA@8     1003346c     user32:USER32.dll
 0002:00000470       __imp__EnumThreadWindows@12 10033470     user32:USER32.dll
 0002:00000474       __imp__CallWindowProcA@20  10033474     user32:USER32.dll
 0002:00000478       __imp__EnumChildWindows@12 10033478     user32:USER32.dll
 0002:0000047c       __imp__SetClassLongA@12    1003347c     user32:USER32.dll
 0002:00000480       __imp__GetWindowLongA@8    10033480     user32:USER32.dll
 0002:00000484       __imp__SetWindowLongA@12   10033484     user32:USER32.dll
 0002:00000488       __imp__SendMessageA@16     10033488     user32:USER32.dll
 0002:0000048c       __imp__GetCursorPos@4      1003348c     user32:USER32.dll
 0002:00000490       __imp__GetWindowThreadProcessId@8 10033490     user32:USER32.dll
 0002:00000494       __imp__EnumDisplayDevicesA@16 10033494     user32:USER32.dll
 0002:00000498       __imp__IsWindowVisible@4   10033498     user32:USER32.dll
 0002:0000049c       __imp__EnumDesktopsA@12    1003349c     user32:USER32.dll
 0002:000004a0       __imp__IsWindowUnicode@4   100334a0     user32:USER32.dll
 0002:000004a4       __imp__GetWindowTextA@12   100334a4     user32:USER32.dll
 0002:000004a8       __imp__GetWindowRect@8     100334a8     user32:USER32.dll
 0002:000004ac       __imp__MessageBoxIndirectA@4 100334ac     user32:USER32.dll
 0002:000004b0       __imp__MonitorFromWindow@8 100334b0     user32:USER32.dll
 0002:000004b4       __imp__SendMessageTimeoutA@28 100334b4     user32:USER32.dll
 0002:000004b8       __imp__SetWindowPos@28     100334b8     user32:USER32.dll
 0002:000004bc       __imp__SystemParametersInfoA@16 100334bc     user32:USER32.dll
 0002:000004c0       __imp__GetSystemMetrics@4  100334c0     user32:USER32.dll
 0002:000004c4       __imp__EnumDesktopWindows@12 100334c4     user32:USER32.dll
 0002:000004c8       __imp__EnumDisplayMonitors@16 100334c8     user32:USER32.dll
 0002:000004cc       __imp__GetClassNameA@12    100334cc     user32:USER32.dll
 0002:000004d0       __imp__EnumPropsExA@12     100334d0     user32:USER32.dll
 0002:000004d4       __imp__IsIconic@4          100334d4     user32:USER32.dll
 0002:000004d8       __imp__IsZoomed@4          100334d8     user32:USER32.dll
 0002:000004dc       __imp__GetParent@4         100334dc     user32:USER32.dll
 0002:000004e0       __imp__GetProcessWindowStation@0 100334e0     user32:USER32.dll
 0002:000004e4       __imp__EnumWindowStationsA@8 100334e4     user32:USER32.dll
 0002:000004e8       __imp__EnumDisplaySettingsA@12 100334e8     user32:USER32.dll
 0002:000004ec       __imp__EnumWindows@8       100334ec     user32:USER32.dll
 0002:000004f0       __imp__ScreenToClient@8    100334f0     user32:USER32.dll
 0002:000004f4       \177USER32_NULL_THUNK_DATA 100334f4     user32:USER32.dll
 0002:000004f8       __imp__EnumFormsA@24       100334f8     winspool:WINSPOOL.DRV
 0002:000004fc       __imp__ClosePrinter@4      100334fc     winspool:WINSPOOL.DRV
 0002:00000500       __imp__DeviceCapabilitiesA@20 10033500     winspool:WINSPOOL.DRV
 0002:00000504       __imp__OpenPrinterA@12     10033504     winspool:WINSPOOL.DRV
 0002:00000508       __imp__EnumPrintersA@28    10033508     winspool:WINSPOOL.DRV
 0002:0000050c       __imp__EnumJobsA@32        1003350c     winspool:WINSPOOL.DRV
 0002:00000510       \177WINSPOOL_NULL_THUNK_DATA 10033510     winspool:WINSPOOL.DRV
 0002:00000514       __imp__inet_addr@4         10033514     ws2_32:WS2_32.dll
 0002:00000518       __imp__inet_ntoa@4         10033518     ws2_32:WS2_32.dll
 0002:0000051c       __imp__send@16             1003351c     ws2_32:WS2_32.dll
 0002:00000520       __imp__closesocket@4       10033520     ws2_32:WS2_32.dll
 0002:00000524       __imp__socket@12           10033524     ws2_32:WS2_32.dll
 0002:00000528       __imp__recv@16             10033528     ws2_32:WS2_32.dll
 0002:0000052c       __imp__htons@4             1003352c     ws2_32:WS2_32.dll
 0002:00000530       __imp__WSAGetLastError@0   10033530     ws2_32:WS2_32.dll
 0002:00000534       __imp__select@20           10033534     ws2_32:WS2_32.dll
 0002:00000538       __imp__htonl@4             10033538     ws2_32:WS2_32.dll
 0002:0000053c       __imp__ntohl@4             1003353c     ws2_32:WS2_32.dll
 0002:00000540       __imp__connect@12          10033540     ws2_32:WS2_32.dll
 0002:00000544       __imp__WSACleanup@0        10033544     ws2_32:WS2_32.dll
 0002:00000548       __imp__WSAStartup@8        10033548     ws2_32:WS2_32.dll
 0002:0000054c       __imp__gethostbyname@4     1003354c     ws2_32:WS2_32.dll
 0002:00000550       __imp__gethostname@8       10033550     ws2_32:WS2_32.dll
 0002:00000554       \177WS2_32_NULL_THUNK_DATA 10033554     ws2_32:WS2_32.dll
 0002:00000558       __imp__GetSaveFileNameA@4  10033558     comdlg32:comdlg32.dll
 0002:0000055c       __imp__CommDlgExtendedError@0 1003355c     comdlg32:comdlg32.dll
 0002:00000560       __imp__GetOpenFileNameA@4  10033560     comdlg32:comdlg32.dll
 0002:00000564       \177comdlg32_NULL_THUNK_DATA 10033564     comdlg32:comdlg32.dll
 0002:00000568       __imp__StringFromGUID2@12  10033568     ole32:ole32.dll
 0002:0000056c       __imp__ReadClassStg@8      1003356c     ole32:ole32.dll
 0002:00000570       __imp__CLSIDFromString@8   10033570     ole32:ole32.dll
 0002:00000574       __imp__GetRunningObjectTable@8 10033574     ole32:ole32.dll
 0002:00000578       __imp__WriteClassStg@8     10033578     ole32:ole32.dll
 0002:0000057c       __imp__CoGetInterfaceAndReleaseStream@12 1003357c     ole32:ole32.dll
 0002:00000580       __imp__CoMarshalInterThreadInterfaceInStream@12 10033580     ole32:ole32.dll
 0002:00000584       __imp__CLSIDFromProgID@8   10033584     ole32:ole32.dll
 0002:00000588       __imp__CoUninitialize@0    10033588     ole32:ole32.dll
 0002:0000058c       __imp__CoCreateInstance@20 1003358c     ole32:ole32.dll
 0002:00000590       __imp__CoCreateGuid@4      10033590     ole32:ole32.dll
 0002:00000594       __imp__CoTaskMemFree@4     10033594     ole32:ole32.dll
 0002:00000598       __imp__CoInitializeEx@8    10033598     ole32:ole32.dll
 0002:0000059c       __imp__StgOpenStorage@24   1003359c     ole32:ole32.dll
 0002:000005a0       __imp__StgCreateDocfile@16 100335a0     ole32:ole32.dll
 0002:000005a4       __imp__ProgIDFromCLSID@8   100335a4     ole32:ole32.dll
 0002:000005a8       __imp__CreateFileMoniker@8 100335a8     ole32:ole32.dll
 0002:000005ac       \177ole32_NULL_THUNK_DATA  100335ac     ole32:ole32.dll
 0002:000005b0       __imp__URLDownloadToFileA@20 100335b0     urlmon:urlmon.dll
 0002:000005b4       \177urlmon_NULL_THUNK_DATA 100335b4     urlmon:urlmon.dll
 0002:000005b8       _GUID_NULL                 100335b8     uuid:cguid_i.obj
 0002:000005c8       ??_C@_0BC@DJAFKIEP@SQLInstallerError?$AA@ 100335c8     odbccp32:funcload.obj
 0002:000005dc       ??_C@_0N@JLIDKDKN@odbccp32?4dll?$AA@ 100335dc     odbccp32:dllload.obj
 0002:000005ec       ??_C@_0P@EGBPEC@VerQueryValueA?$AA@ 100335ec     odbccp32:dllload.obj
 0002:000005fc       ??_C@_0BE@JIHADGJK@GetFileVersionInfoA?$AA@ 100335fc     odbccp32:dllload.obj
 0002:00000610       ??_C@_0BI@FKDAHLLJ@GetFileVersionInfoSizeA?$AA@ 10033610     odbccp32:dllload.obj
 0002:00000628       ??_C@_0M@JHNIIDCD@version?4dll?$AA@ 10033628     odbccp32:dllload.obj
 0002:00000634       ??_C@_0BA@OKJPKEPD@?$CFs?2odbccp32?4bad?$AA@ 10033634     odbccp32:dllload.obj
 0002:00000644       ??_C@_05BMGBEOOC@?$CFs?2?$CFs?$AA@ 10033644     odbccp32:dllload.obj
 0002:00000650       ??_C@_0JJ@JOMFALGN@The?5program?5?$CFs?0?5or?5one?5of?5its?5DL@ 10033650     odbccp32:dllload.obj
 0002:000006f0       ??_C@_0EH@EGPNBEPO@The?5ODBC?5installer?5DLL?5?$CIODBCCP32@ 100336f0     odbccp32:dllload.obj
 0002:00000738       ??_C@_0BF@NMOIJPAJ@ODBC?5Installer?5Error?$AA@ 10033738     odbccp32:dllload.obj
 0002:00000750       _GUID_ATLVer30             10033750     atls:atlbase.obj
 0002:00000760       _GUID_ATLVer70             10033760     atls:atlbase.obj
 0002:00000790       ??_7type_info@@6B@         10033790     MSVCRT:ti_inst.obj
 0002:000007e4       ??_C@_08MHJMGJAK@AErrorEx?$AA@ 100337e4     vfp2c32.obj
 0002:000007f0       ??_C@_05ONOPBMIM@I?4I?4I?$AA@ 100337f0     vfp2c32.obj
 0002:000007f8       ??_C@_0BA@DANFLJGM@FormatMessageEx?$AA@ 100337f8     vfp2c32.obj
 0002:00000808       ??_C@_09KCFBDBBA@AFontInfo?$AA@ 10033808     vfp2c32.obj
 0002:00000814       ??_C@_0CB@PGMDGMHG@AbortRasConnectionNotificationEx@ 10033814     vfp2c32.obj
 0002:00000838       ??_C@_03JMLIJNNN@IIC?$AA@  10033838     vfp2c32.obj
 0002:0000083c       ??_C@_0BM@ELDOJJMD@RasConnectionNotificationEx?$AA@ 1003383c     vfp2c32.obj
 0002:00000858       ??_C@_0L@KJIAIMDP@?4?$DP?4C?4C?4I?4I?$AA@ 10033858     vfp2c32.obj
 0002:00000864       ??_C@_09BDPJGHAD@RasDialEx?$AA@ 10033864     vfp2c32.obj
 0002:00000870       ??_C@_0BP@BHBANBIL@RasClearConnectionStatisticsEx?$AA@ 10033870     vfp2c32.obj
 0002:00000890       ??_C@_0L@EFPFOJCJ@?4C?4C?4C?4I?4I?$AA@ 10033890     vfp2c32.obj
 0002:0000089c       ??_C@_0N@IFOBJIBK@RasDialDlgEx?$AA@ 1003389c     vfp2c32.obj
 0002:000008ac       ??_C@_0BG@LGJCAEIB@RasGetConnectStatusEx?$AA@ 100338ac     vfp2c32.obj
 0002:000008c4       ??_C@_0M@GFEGNPPC@RasHangUpEx?$AA@ 100338c4     vfp2c32.obj
 0002:000008d0       ??_C@_08KAFHOCDM@?4?$DP?4?$DP?4?$DP?4I?$AA@ 100338d0     vfp2c32.obj
 0002:000008dc       ??_C@_0BC@NKHCICKM@RasPhonebookDlgEx?$AA@ 100338dc     vfp2c32.obj
 0002:000008f0       ??_C@_0BF@ELDDENOC@ARasPhonebookEntries?$AA@ 100338f0     vfp2c32.obj
 0002:00000908       ??_C@_0M@KGKIBJBC@ARasDevices?$AA@ 10033908     vfp2c32.obj
 0002:00000914       ??_C@_0BA@HPCFBIHK@ARasConnections?$AA@ 10033914     vfp2c32.obj
 0002:00000924       ??_C@_03EHNBAOF@CCI?$AA@   10033924     vfp2c32.obj
 0002:00000928       ??_C@_09HCHEFCIM@ASplitStr?$AA@ 10033928     vfp2c32.obj
 0002:00000934       ??_C@_04IJEIEPHN@AMin?$AA@ 10033934     vfp2c32.obj
 0002:0000093c       ??_C@_04JLMDKLBC@AMax?$AA@ 1003393c     vfp2c32.obj
 0002:00000944       ??_C@_08LHDDCEBA@AAverage?$AA@ 10033944     vfp2c32.obj
 0002:00000950       ??_C@_03KMNHHIGM@R?4I?$AA@ 10033950     vfp2c32.obj
 0002:00000954       ??_C@_04HJPGGAG@ASum?$AA@  10033954     vfp2c32.obj
 0002:0000095c       ??_C@_04LEDHENN@OsEx?$AA@  1003395c     vfp2c32.obj
 0002:00000964       ??_C@_0BA@ONOKGCMP@GetLocaleInfoEx?$AA@ 10033964     vfp2c32.obj
 0002:00000974       ??_C@_0CA@CDLIFHBA@ReleasePublicShadowObjReference?$AA@ 10033974     vfp2c32.obj
 0002:00000994       ??_C@_02FIDEGLO@CO?$AA@    10033994     vfp2c32.obj
 0002:00000998       ??_C@_0BP@DBJDDGGH@CreatePublicShadowObjReference?$AA@ 10033998     vfp2c32.obj
 0002:000009b8       ??_C@_0L@JKJNBNNM@Num2Binary?$AA@ 100339b8     vfp2c32.obj
 0002:000009c4       ??_C@_08DAMBCEIE@Decimals?$AA@ 100339c4     vfp2c32.obj
 0002:000009d0       ??_C@_0O@DJKHGEIC@Variant2Value?$AA@ 100339d0     vfp2c32.obj
 0002:000009e0       ??_C@_0O@FBAMDDMI@Value2Variant?$AA@ 100339e0     vfp2c32.obj
 0002:000009f0       ??_C@_09HBOFBCI@Int64_Mod?$AA@ 100339f0     vfp2c32.obj
 0002:000009fc       ??_C@_09GGPBCMD@Int64_Div?$AA@ 100339fc     vfp2c32.obj
 0002:00000a08       ??_C@_09NOHGPNIG@Int64_Mul?$AA@ 10033a08     vfp2c32.obj
 0002:00000a14       ??_C@_09PADDPAKE@Int64_Sub?$AA@ 10033a14     vfp2c32.obj
 0002:00000a20       ??_C@_04KBIMFAOE@?$DP?$DP?4I?$AA@ 10033a20     vfp2c32.obj
 0002:00000a28       ??_C@_09EBJNABHB@Int64_Add?$AA@ 10033a28     vfp2c32.obj
 0002:00000a34       ??_C@_06FCKBEGNF@RR?4L?4?$DP?$AA@ 10033a34     vfp2c32.obj
 0002:00000a3c       ??_C@_0P@HFBCGGPE@GetCursorPosEx?$AA@ 10033a3c     vfp2c32.obj
 0002:00000a4c       ??_C@_05MGPNLHNB@III?4I?$AA@ 10033a4c     vfp2c32.obj
 0002:00000a54       ??_C@_0L@LDJMIKMH@Colors2RGB?$AA@ 10033a54     vfp2c32.obj
 0002:00000a60       ??_C@_06GLMPLGGJ@IRRR?4R?$AA@ 10033a60     vfp2c32.obj
 0002:00000a68       ??_C@_0L@BPOBHANH@RGB2Colors?$AA@ 10033a68     vfp2c32.obj
 0002:00000a74       ??_C@_03BIOMKDPH@?$DP?4L?$AA@ 10033a74     vfp2c32.obj
 0002:00000a78       ??_C@_0N@INCIBNAI@PG_Str2ByteA?$AA@ 10033a78     vfp2c32.obj
 0002:00000a88       ??_C@_0N@OJMLOODB@PG_ByteA2Str?$AA@ 10033a88     vfp2c32.obj
 0002:00000a98       ??_C@_05KFMGPKLO@?$DP?4C?4C?$AA@ 10033a98     vfp2c32.obj
 0002:00000aa0       ??_C@_0O@KGGKBBLF@DeleteService?$AA@ 10033aa0     vfp2c32.obj
 0002:00000ab0       ??_C@_0BH@PKCGGGHB@CC?4?$DP?4?$DP?4?$DP?4C?4C?4C?4C?4C?4C?4C?$AA@ 10033ab0     vfp2c32.obj
 0002:00000ac8       ??_C@_0O@CHKDFCOE@CreateService?$AA@ 10033ac8     vfp2c32.obj
 0002:00000ad8       ??_C@_08HHKODFGL@?$DPI?4I?4C?4C?$AA@ 10033ad8     vfp2c32.obj
 0002:00000ae4       ??_C@_0BF@GEJIFGCI@WaitForServiceStatus?$AA@ 10033ae4     vfp2c32.obj
 0002:00000afc       ??_C@_0BD@GBLGHFEN@ADependentServices?$AA@ 10033afc     vfp2c32.obj
 0002:00000b10       ??_C@_09BJBCJEGC@C?4C?4C?4I?4I?$AA@ 10033b10     vfp2c32.obj
 0002:00000b1c       ??_C@_09OPOKGJIK@AServices?$AA@ 10033b1c     vfp2c32.obj
 0002:00000b28       ??_C@_0P@MENPNOAO@AServiceConfig?$AA@ 10033b28     vfp2c32.obj
 0002:00000b38       ??_C@_06PMILOLIH@C?$DP?4C?4C?$AA@ 10033b38     vfp2c32.obj
 0002:00000b40       ??_C@_0P@IJMCDFBM@AServiceStatus?$AA@ 10033b40     vfp2c32.obj
 0002:00000b50       ??_C@_07GPDCGJLI@?$DP?4I?4C?4C?$AA@ 10033b50     vfp2c32.obj
 0002:00000b58       ??_C@_0P@OACFAAAJ@ControlService?$AA@ 10033b58     vfp2c32.obj
 0002:00000b68       ??_C@_0BA@KIOIKBCH@ContinueService?$AA@ 10033b68     vfp2c32.obj
 0002:00000b78       ??_C@_07LCEJIHGE@?$DP?4?$DP?4C?4C?$AA@ 10033b78     vfp2c32.obj
 0002:00000b80       ??_C@_0N@OIGDNGHK@PauseService?$AA@ 10033b80     vfp2c32.obj
 0002:00000b90       ??_C@_09GKJMMPJA@?$DP?4?$DP?4L?4C?4C?$AA@ 10033b90     vfp2c32.obj
 0002:00000b9c       ??_C@_0M@HHBBHAOF@StopService?$AA@ 10033b9c     vfp2c32.obj
 0002:00000ba8       ??_C@_09OHCKLAPP@?$DP?4?$DP?4?$DP?4C?4C?$AA@ 10033ba8     vfp2c32.obj
 0002:00000bb4       ??_C@_0N@ILEEKKBN@StartService?$AA@ 10033bb4     vfp2c32.obj
 0002:00000bc4       ??_C@_0BD@DLOBKKPI@CloseServiceHandle?$AA@ 10033bc4     vfp2c32.obj
 0002:00000bd8       ??_C@_07JEMNONGH@C?4I?4C?4C?$AA@ 10033bd8     vfp2c32.obj
 0002:00000be0       ??_C@_0M@LNPKKKDA@OpenService?$AA@ 10033be0     vfp2c32.obj
 0002:00000bec       ??_C@_0P@OLAKANHN@CC?4I?4I?4I?4I?4L?4I?$AA@ 10033bec     vfp2c32.obj
 0002:00000bfc       ??_C@_08MCCILFLJ@IcmpPing?$AA@ 10033bfc     vfp2c32.obj
 0002:00000c08       ??_C@_0O@BBLOHDDK@Ip2MacAddress?$AA@ 10033c08     vfp2c32.obj
 0002:00000c18       ??_C@_0BA@EBJIJKLD@ResolveHostToIp?$AA@ 10033c18     vfp2c32.obj
 0002:00000c28       ??_C@_0N@MPIKFKBJ@AIPAddresses?$AA@ 10033c28     vfp2c32.obj
 0002:00000c38       ??_C@_0BJ@KFMJDKMO@AbortUrlDownloadToFileEx?$AA@ 10033c38     vfp2c32.obj
 0002:00000c54       ??_C@_08IOJJDGJN@CC?4C?4L?4L?$AA@ 10033c54     vfp2c32.obj
 0002:00000c60       ??_C@_0BE@NCCJOOGA@UrlDownloadToFileEx?$AA@ 10033c60     vfp2c32.obj
 0002:00000c74       ??_C@_09BDLLKCGI@C?4?$DP?4L?4I?4I?$AA@ 10033c74     vfp2c32.obj
 0002:00000c80       ??_C@_0BD@NDLKAIOD@CreateThreadObject?$AA@ 10033c80     vfp2c32.obj
 0002:00000c94       ??_C@_0BD@ICAMDJGB@RevokeActiveObject?$AA@ 10033c94     vfp2c32.obj
 0002:00000ca8       ??_C@_03LEEEEHNH@OCC?$AA@  10033ca8     vfp2c32.obj
 0002:00000cac       ??_C@_0BM@KKDINMAN@RegisterObjectAsFileMoniker?$AA@ 10033cac     vfp2c32.obj
 0002:00000cc8       ??_C@_02KACMPANG@OC?$AA@   10033cc8     vfp2c32.obj
 0002:00000ccc       ??_C@_0BF@PHKEIFDP@RegisterActiveObject?$AA@ 10033ccc     vfp2c32.obj
 0002:00000ce4       ??_C@_02BDNGLJEL@?4I?$AA@  10033ce4     vfp2c32.obj
 0002:00000ce8       ??_C@_0L@JDGAOALM@CreateGuid?$AA@ 10033ce8     vfp2c32.obj
 0002:00000cf4       ??_C@_02HHFHKOHM@?$DP?$DP?$AA@ 10033cf4     vfp2c32.obj
 0002:00000cf8       ??_C@_0M@JHIJAGAO@IsEqualGuid?$AA@ 10033cf8     vfp2c32.obj
 0002:00000d04       ??_C@_0BA@MMGMLOAO@StringFromCLSID?$AA@ 10033d04     vfp2c32.obj
 0002:00000d14       ??_C@_0BA@OCNJAMDG@CLSIDFromString?$AA@ 10033d14     vfp2c32.obj
 0002:00000d24       ??_C@_0BA@JPCHEFCI@ProgIDFromCLSID?$AA@ 10033d24     vfp2c32.obj
 0002:00000d34       ??_C@_0BA@POGMPGLC@CLSIDFromProgID?$AA@ 10033d34     vfp2c32.obj
 0002:00000d44       ??_C@_05EMHEDPOK@C?4I?4I?$AA@ 10033d44     vfp2c32.obj
 0002:00000d4c       ??_C@_0BB@COGEBBGL@SyncToSNTPServer?$AA@ 10033d4c     vfp2c32.obj
 0002:00000d60       ??_C@_0O@BAAENGAB@GetServerTime?$AA@ 10033d60     vfp2c32.obj
 0002:00000d70       ??_C@_07HIPKDLPJ@C?4I?4I?4?$DP?$AA@ 10033d70     vfp2c32.obj
 0002:00000d78       ??_C@_0M@FMJDBCPD@ANetServers?$AA@ 10033d78     vfp2c32.obj
 0002:00000d84       ??_C@_07OLNFCKGF@C?4?$DP?4?$DP?4?$DP?$AA@ 10033d84     vfp2c32.obj
 0002:00000d8c       ??_C@_09INKMOOGN@ANetFiles?$AA@ 10033d8c     vfp2c32.obj
 0002:00000d98       ??_C@_0L@HGGBCHBK@ATimeZones?$AA@ 10033d98     vfp2c32.obj
 0002:00000da4       ??_C@_02GOKBENAO@?4L?$AA@  10033da4     vfp2c32.obj
 0002:00000da8       ??_C@_0O@IKEIBEBH@GetSystemTime?$AA@ 10033da8     vfp2c32.obj
 0002:00000db8       ??_C@_03PEMLNDPF@T?4L?$AA@ 10033db8     vfp2c32.obj
 0002:00000dbc       ??_C@_0O@PFFGKHGA@SetSystemTime?$AA@ 10033dbc     vfp2c32.obj
 0002:00000dcc       ??_C@_09CNOFAGGE@Double2DT?$AA@ 10033dcc     vfp2c32.obj
 0002:00000dd8       ??_C@_09NDMOGFFN@DT2Double?$AA@ 10033dd8     vfp2c32.obj
 0002:00000de4       ??_C@_08LEIADIBO@Timet2DT?$AA@ 10033de4     vfp2c32.obj
 0002:00000df0       ??_C@_04GNFMGKJB@?4T?4L?$AA@ 10033df0     vfp2c32.obj
 0002:00000df8       ??_C@_08LLCGDFCH@DT2Timet?$AA@ 10033df8     vfp2c32.obj
 0002:00000e04       ??_C@_06GIFEADIP@UTC2DT?$AA@ 10033e04     vfp2c32.obj
 0002:00000e0c       ??_C@_01GAPBHFFA@T?$AA@    10033e0c     vfp2c32.obj
 0002:00000e10       ??_C@_06NCBLLFNG@DT2UTC?$AA@ 10033e10     vfp2c32.obj
 0002:00000e18       ??_C@_05PKNCMAGI@ST2DT?$AA@ 10033e18     vfp2c32.obj
 0002:00000e20       ??_C@_05PNGIEHLO@DT2ST?$AA@ 10033e20     vfp2c32.obj
 0002:00000e28       ??_C@_05KJMJFDEA@FT2DT?$AA@ 10033e28     vfp2c32.obj
 0002:00000e30       ??_C@_04HMENBNLN@TI?4L?$AA@ 10033e30     vfp2c32.obj
 0002:00000e38       ??_C@_05OHIFCGCF@DT2FT?$AA@ 10033e38     vfp2c32.obj
 0002:00000e40       ??_C@_0BE@PBDAEJIJ@CancelWaitForObject?$AA@ 10033e40     vfp2c32.obj
 0002:00000e54       ??_C@_0BD@GOBOLNFE@AsyncWaitForObject?$AA@ 10033e54     vfp2c32.obj
 0002:00000e68       ??_C@_0BF@DGDMHCLB@CancelRegistryChange?$AA@ 10033e68     vfp2c32.obj
 0002:00000e80       ??_C@_05MOEGKGN@ICLIC?$AA@ 10033e80     vfp2c32.obj
 0002:00000e88       ??_C@_0BD@JDJFFPFH@FindRegistryChange?$AA@ 10033e88     vfp2c32.obj
 0002:00000e9c       ??_C@_0BD@LOAJDPAL@CancelFileChangeEx?$AA@ 10033e9c     vfp2c32.obj
 0002:00000eb0       ??_C@_06PGJKHALJ@CLIC?4O?$AA@ 10033eb0     vfp2c32.obj
 0002:00000eb8       ??_C@_0BB@JKIEGMGJ@FindFileChangeEx?$AA@ 10033eb8     vfp2c32.obj
 0002:00000ecc       ??_C@_0BB@EEDOMNKE@CancelFileChange?$AA@ 10033ecc     vfp2c32.obj
 0002:00000ee0       ??_C@_04FDFDGHHH@CLIC?$AA@ 10033ee0     vfp2c32.obj
 0002:00000ee8       ??_C@_0P@LHEJPMEH@FindFileChange?$AA@ 10033ee8     vfp2c32.obj
 0002:00000ef8       ??_C@_0BA@GEHNIOLE@C?4I?4C?4?$DP?4?$DP?4?$DP?4?$DP?4I?$AA@ 10033ef8     vfp2c32.obj
 0002:00000f08       ??_C@_0N@OOBDHJID@MessageBoxEx?$AA@ 10033f08     vfp2c32.obj
 0002:00000f18       ??_C@_0N@IJKHICCA@ADesktopArea?$AA@ 10033f18     vfp2c32.obj
 0002:00000f28       ??_C@_0P@BGPECGFF@CenterWindowEx?$AA@ 10033f28     vfp2c32.obj
 0002:00000f38       ??_C@_0BA@DLFBDFJP@GetWindowRectEx?$AA@ 10033f38     vfp2c32.obj
 0002:00000f48       ??_C@_03FGLIFMLH@I?4L?$AA@ 10033f48     vfp2c32.obj
 0002:00000f4c       ??_C@_0BA@EPLBKGDG@GetWindowTextEx?$AA@ 10033f4c     vfp2c32.obj
 0002:00000f5c       ??_C@_0BE@PDPFHKMA@DestroyCallbackFunc?$AA@ 10033f5c     vfp2c32.obj
 0002:00000f70       ??_C@_07GPAOLEBG@CCC?4O?4I?$AA@ 10033f70     vfp2c32.obj
 0002:00000f78       ??_C@_0BD@IAPOOECJ@CreateCallbackFunc?$AA@ 10033f78     vfp2c32.obj
 0002:00000f8c       ??_C@_05JAJIOIMJ@I?4I?4L?$AA@ 10033f8c     vfp2c32.obj
 0002:00000f94       ??_C@_0P@CCKLHKCP@UnbindEventsEx?$AA@ 10033f94     vfp2c32.obj
 0002:00000fa4       ??_C@_08EPCDMMIG@II?$DPC?4?$DP?4I?$AA@ 10033fa4     vfp2c32.obj
 0002:00000fb0       ??_C@_0N@LDCKPEKP@BindEventsEx?$AA@ 10033fb0     vfp2c32.obj
 0002:00000fc0       ??_C@_07LDMNGNFE@CIR?4C?4C?$AA@ 10033fc0     vfp2c32.obj
 0002:00000fc8       ??_C@_0P@DDPOBIKE@SHBrowseFolder?$AA@ 10033fc8     vfp2c32.obj
 0002:00000fd8       ??_C@_0O@DOIDEFF@SHRenameFiles?$AA@ 10033fd8     vfp2c32.obj
 0002:00000fe8       ??_C@_05LGJLNHGA@C?4I?4C?$AA@ 10033fe8     vfp2c32.obj
 0002:00000ff0       ??_C@_0O@NKCANHHI@SHDeleteFiles?$AA@ 10033ff0     vfp2c32.obj
 0002:00001000       ??_C@_06OPNGMGFJ@CC?4I?4C?$AA@ 10034000     vfp2c32.obj
 0002:00001008       ??_C@_0M@PGGOCIHA@SHCopyFiles?$AA@ 10034008     vfp2c32.obj
 0002:00001014       ??_C@_05NHDJGEJM@CCI?4C?$AA@ 10034014     vfp2c32.obj
 0002:0000101c       ??_C@_0M@IOLGOHPO@SHMoveFiles?$AA@ 1003401c     vfp2c32.obj
 0002:00001028       ??_C@_04GDCFJOBA@IR?4L?$AA@ 10034028     vfp2c32.obj
 0002:00001030       ??_C@_0BA@OLLKBMOH@SHSpecialFolder?$AA@ 10034030     vfp2c32.obj
 0002:00001040       ??_C@_0M@KLCFJNNE@AFHandlesEx?$AA@ 10034040     vfp2c32.obj
 0002:0000104c       ??_C@_0O@BJBJGEPM@FUnlockFileEx?$AA@ 1003404c     vfp2c32.obj
 0002:0000105c       ??_C@_05PODLFNPO@I?$DP?$DP?4I?$AA@ 1003405c     vfp2c32.obj
 0002:00001064       ??_C@_0M@IGAIMBKA@FLockFileEx?$AA@ 10034064     vfp2c32.obj
 0002:00001070       ??_C@_0M@DOJILPKF@FUnlockFile?$AA@ 10034070     vfp2c32.obj
 0002:0000107c       ??_C@_03EPEOLPMF@I?$DP?$DP?$AA@ 1003407c     vfp2c32.obj
 0002:00001080       ??_C@_09KOALLDEN@FLockFile?$AA@ 10034080     vfp2c32.obj
 0002:0000108c       ??_C@_08JNCCBJHD@FFlushEx?$AA@ 1003408c     vfp2c32.obj
 0002:00001098       ??_C@_09HICLIKJA@FChSizeEx?$AA@ 10034098     vfp2c32.obj
 0002:000010a4       ??_C@_06COHHKALF@FEoFEx?$AA@ 100340a4     vfp2c32.obj
 0002:000010ac       ??_C@_04EJNICHC@IN?4I?$AA@ 100340ac     vfp2c32.obj
 0002:000010b4       ??_C@_07BDGJLCNF@FSeekEx?$AA@ 100340b4     vfp2c32.obj
 0002:000010bc       ??_C@_05ICFCPMOI@I?4C?4I?$AA@ 100340bc     vfp2c32.obj
 0002:000010c4       ??_C@_07OJHKGLJB@FPutsEx?$AA@ 100340c4     vfp2c32.obj
 0002:000010cc       ??_C@_07EINFMLEK@FGetsEx?$AA@ 100340cc     vfp2c32.obj
 0002:000010d4       ??_C@_08COIMAJHI@FWriteEx?$AA@ 100340d4     vfp2c32.obj
 0002:000010e0       ??_C@_07BIPNAPPH@FReadEx?$AA@ 100340e0     vfp2c32.obj
 0002:000010e8       ??_C@_08IFOFOODH@FCloseEx?$AA@ 100340e8     vfp2c32.obj
 0002:000010f4       ??_C@_07NHNCCHHF@FOpenEx?$AA@ 100340f4     vfp2c32.obj
 0002:000010fc       ??_C@_07BJPOFIJ@C?4I?4I?4I?$AA@ 100340fc     vfp2c32.obj
 0002:00001104       ??_C@_09NIAALBH@FCreateEx?$AA@ 10034104     vfp2c32.obj
 0002:00001110       ??_C@_0N@KMKHJBOM@DeleteFileEx?$AA@ 10034110     vfp2c32.obj
 0002:00001120       ??_C@_0BB@FMHOLNLM@CompareFileTimes?$AA@ 10034120     vfp2c32.obj
 0002:00001134       ??_C@_0L@HLFHGOPP@MoveFileEx?$AA@ 10034134     vfp2c32.obj
 0002:00001140       ??_C@_06HKIEMOLH@CC?4C?4I?$AA@ 10034140     vfp2c32.obj
 0002:00001148       ??_C@_0L@HBCPBIBH@CopyFileEx?$AA@ 10034148     vfp2c32.obj
 0002:00001154       ??_C@_0BD@NGBFFLAJ@AVolumeInformation?$AA@ 10034154     vfp2c32.obj
 0002:00001168       ??_C@_0N@GNCCAJGB@AVolumePaths?$AA@ 10034168     vfp2c32.obj
 0002:00001178       ??_C@_0BD@BABGHGHM@AVolumeMountPoints?$AA@ 10034178     vfp2c32.obj
 0002:0000118c       ??_C@_08PDOOJGOG@AVolumes?$AA@ 1003418c     vfp2c32.obj
 0002:00001198       ??_C@_0L@PCLKHOCP@ADriveInfo?$AA@ 10034198     vfp2c32.obj
 0002:000011a4       ??_C@_0P@IHHCLPLH@?4I?4C?4C?4C?4C?4I?4C?$AA@ 100341a4     vfp2c32.obj
 0002:000011b4       ??_C@_0BA@COIIJJPF@GetSaveFileName?$AA@ 100341b4     vfp2c32.obj
 0002:000011c4       ??_C@_0BB@BJNNGGDM@?4I?4C?4C?4C?4C?4I?4C?4C?$AA@ 100341c4     vfp2c32.obj
 0002:000011d8       ??_C@_0BA@FIHMHOHK@GetOpenFileName?$AA@ 100341d8     vfp2c32.obj
 0002:000011e8       ??_C@_0BJ@FIJODGGF@ExpandEnvironmentStrings?$AA@ 100341e8     vfp2c32.obj
 0002:00001204       ??_C@_0BD@HIJECHKD@GetSystemDirectory?$AA@ 10034204     vfp2c32.obj
 0002:00001218       ??_C@_0BE@BNHPMEH@GetWindowsDirectory?$AA@ 10034218     vfp2c32.obj
 0002:0000122c       ??_C@_0BA@DDBMMFKC@DeleteDirectory?$AA@ 1003422c     vfp2c32.obj
 0002:0000123c       ??_C@_0BB@CGADALPM@GetShortPathName?$AA@ 1003423c     vfp2c32.obj
 0002:00001250       ??_C@_0BA@KAJOCNIO@GetLongPathName?$AA@ 10034250     vfp2c32.obj
 0002:00001260       ??_C@_06PDJNOEOJ@CR?4R?4R?$AA@ 10034260     vfp2c32.obj
 0002:00001268       ??_C@_0N@MOMBJEKA@GetFileOwner?$AA@ 10034268     vfp2c32.obj
 0002:00001278       ??_C@_0BC@OLEPBJPL@SetFileAttributes?$AA@ 10034278     vfp2c32.obj
 0002:0000128c       ??_C@_0BC@MOEEJCOF@GetFileAttributes?$AA@ 1003428c     vfp2c32.obj
 0002:000012a0       ??_C@_0M@BAICHOOE@GetFileSize?$AA@ 100342a0     vfp2c32.obj
 0002:000012ac       ??_C@_0N@HBABNPI@SetFileTimes?$AA@ 100342ac     vfp2c32.obj
 0002:000012bc       ??_C@_08HAAMHAIK@C?$DP?4?$DP?4?$DP?4L?$AA@ 100342bc     vfp2c32.obj
 0002:000012c8       ??_C@_0N@HDKONBLE@GetFileTimes?$AA@ 100342c8     vfp2c32.obj
 0002:000012d8       ??_C@_02KJDGAJLC@CC?$AA@   100342d8     vfp2c32.obj
 0002:000012dc       ??_C@_0P@IKAGKJIE@ADirectoryInfo?$AA@ 100342dc     vfp2c32.obj
 0002:000012ec       ??_C@_0BC@NCNEEHFM@AFileAttributesEx?$AA@ 100342ec     vfp2c32.obj
 0002:00001300       ??_C@_04MBDALGEL@CC?4L?$AA@ 10034300     vfp2c32.obj
 0002:00001308       ??_C@_0BA@BCENEPIO@AFileAttributes?$AA@ 10034308     vfp2c32.obj
 0002:00001318       ??_C@_06BFDJCOND@CC?4I?4I?$AA@ 10034318     vfp2c32.obj
 0002:00001320       ??_C@_06NAIFNHMI@ADirEx?$AA@ 10034320     vfp2c32.obj
 0002:00001328       ??_C@_0BF@HFMKCDKM@RegistryHiveToObject?$AA@ 10034328     vfp2c32.obj
 0002:00001340       ??_C@_03DNJKFHAH@ICO?$AA@  10034340     vfp2c32.obj
 0002:00001344       ??_C@_0BH@LNMMMCBF@RegistryValuesToObject?$AA@ 10034344     vfp2c32.obj
 0002:0000135c       ??_C@_0BA@EHOAHECP@ARegistryValues?$AA@ 1003435c     vfp2c32.obj
 0002:0000136c       ??_C@_05INLHEND@CIC?4I?$AA@ 1003436c     vfp2c32.obj
 0002:00001374       ??_C@_0O@LFMPEPGO@ARegistryKeys?$AA@ 10034374     vfp2c32.obj
 0002:00001384       ??_C@_08MFFMNMMP@I?$DP?4C?4C?4I?$AA@ 10034384     vfp2c32.obj
 0002:00001390       ??_C@_0BB@JGBMJBAN@WriteRegistryKey?$AA@ 10034390     vfp2c32.obj
 0002:000013a4       ??_C@_07KEJGNCMJ@I?4C?4C?4C?$AA@ 100343a4     vfp2c32.obj
 0002:000013ac       ??_C@_0BA@LEIAPCDK@ReadRegistryKey?$AA@ 100343ac     vfp2c32.obj
 0002:000013bc       ??_C@_0BB@HDNHJJLI@CloseRegistryKey?$AA@ 100343bc     vfp2c32.obj
 0002:000013d0       ??_C@_0BA@PPLEGAE@OpenRegistryKey?$AA@ 100343d0     vfp2c32.obj
 0002:000013e0       ??_C@_0BC@OHFDFCAK@DeleteRegistryKey?$AA@ 100343e0     vfp2c32.obj
 0002:000013f4       ??_C@_08KGKHDJI@IC?4I?4I?4C?$AA@ 100343f4     vfp2c32.obj
 0002:00001400       ??_C@_0BC@GGLJNGOF@CreateRegistryKey?$AA@ 10034400     vfp2c32.obj
 0002:00001414       ??_C@_03POJCPIGP@CCC?$AA@  10034414     vfp2c32.obj
 0002:00001418       ??_C@_0O@FBKIMJBN@APrinterTrays?$AA@ 10034418     vfp2c32.obj
 0002:00001428       ??_C@_05ECGLGMHC@CCC?4I?$AA@ 10034428     vfp2c32.obj
 0002:00001430       ??_C@_0M@CKJMNAAO@APaperSizes?$AA@ 10034430     vfp2c32.obj
 0002:0000143c       ??_C@_0O@NOEFMKGD@APrinterForms?$AA@ 1003443c     vfp2c32.obj
 0002:0000144c       ??_C@_0L@FOCGLEBO@APrintJobs?$AA@ 1003444c     vfp2c32.obj
 0002:00001458       ??_C@_09EDHGDDNL@C?4?$DP?4I?4I?4I?$AA@ 10034458     vfp2c32.obj
 0002:00001464       ??_C@_0M@LLHOKFCB@APrintersEx?$AA@ 10034464     vfp2c32.obj
 0002:00001470       ??_C@_0M@ONFLINFO@SQLCancelEx?$AA@ 10034470     vfp2c32.obj
 0002:0000147c       ??_C@_0BB@PCEPKMHA@IC?4C?4C?4I?4C?4C?4C?4I?$AA@ 1003447c     vfp2c32.obj
 0002:00001490       ??_C@_0N@PBJALINC@SQLPrepareEx?$AA@ 10034490     vfp2c32.obj
 0002:000014a0       ??_C@_0BC@ENECNBEI@I?4C?4C?4C?4I?4C?4C?4C?4I?$AA@ 100344a0     vfp2c32.obj
 0002:000014b4       ??_C@_09ENPJOBCC@SQLExecEx?$AA@ 100344b4     vfp2c32.obj
 0002:000014c0       ??_C@_04PJAAJBLA@?$DPC?4?$DP?$AA@ 100344c0     vfp2c32.obj
 0002:000014c8       ??_C@_0N@NHFPKAOL@SQLSetPropEx?$AA@ 100344c8     vfp2c32.obj
 0002:000014d8       ??_C@_03IMKCMEFL@?$DPCR?$AA@ 100344d8     vfp2c32.obj
 0002:000014dc       ??_C@_0N@PJBKIBHJ@SQLGetPropEx?$AA@ 100344dc     vfp2c32.obj
 0002:000014ec       ??_C@_0M@HABGLDJN@ASQLDrivers?$AA@ 100344ec     vfp2c32.obj
 0002:000014f8       ??_C@_0BA@JKDHLGKE@ASQLDataSources?$AA@ 100344f8     vfp2c32.obj
 0002:00001508       ??_C@_0BE@JNCKDPCO@ChangeSQLDataSource?$AA@ 10034508     vfp2c32.obj
 0002:0000151c       ??_C@_0BE@MCILFIBP@DeleteSQLDataSource?$AA@ 1003451c     vfp2c32.obj
 0002:00001530       ??_C@_04LMEHECAO@CC?4I?$AA@ 10034530     vfp2c32.obj
 0002:00001538       ??_C@_0BE@PBLIHBOP@CreateSQLDataSource?$AA@ 10034538     vfp2c32.obj
 0002:0000154c       ??_C@_0BA@LEFMBNJB@ADisplayDevices?$AA@ 1003454c     vfp2c32.obj
 0002:0000155c       ??_C@_03LOJNKABM@C?4C?$AA@ 1003455c     vfp2c32.obj
 0002:00001560       ??_C@_0N@OHGMEEIN@AResolutions?$AA@ 10034560     vfp2c32.obj
 0002:00001570       ??_C@_04LHHLLFFN@CI?$DP?$DP?$AA@ 10034570     vfp2c32.obj
 0002:00001578       ??_C@_0BD@NEDDCLIJ@AResourceLanguages?$AA@ 10034578     vfp2c32.obj
 0002:0000158c       ??_C@_03HAIPELED@CI?$DP?$AA@ 1003458c     vfp2c32.obj
 0002:00001590       ??_C@_0P@EFPAFDFO@AResourceNames?$AA@ 10034590     vfp2c32.obj
 0002:000015a0       ??_C@_0P@BFFOCBKC@AResourceTypes?$AA@ 100345a0     vfp2c32.obj
 0002:000015b0       ??_C@_09IDBJPDCL@AMonitors?$AA@ 100345b0     vfp2c32.obj
 0002:000015bc       ??_C@_0N@KBHFEMNM@AWindowProps?$AA@ 100345bc     vfp2c32.obj
 0002:000015cc       ??_C@_05CNNGIMBG@CCI?4I?$AA@ 100345cc     vfp2c32.obj
 0002:000015d4       ??_C@_0L@MIEDMKHK@AWindowsEx?$AA@ 100345d4     vfp2c32.obj
 0002:000015e0       ??_C@_04NDPKKCGK@CI?4I?$AA@ 100345e0     vfp2c32.obj
 0002:000015e8       ??_C@_08PJHHADOO@AWindows?$AA@ 100345e8     vfp2c32.obj
 0002:000015f4       ??_C@_09PGDPNBND@ADesktops?$AA@ 100345f4     vfp2c32.obj
 0002:00001600       ??_C@_0BA@MDDCOBCP@AWindowStations?$AA@ 10034600     vfp2c32.obj
 0002:00001610       ??_C@_0BE@NHJDAFBF@ReadProcessMemoryEx?$AA@ 10034610     vfp2c32.obj
 0002:00001624       ??_C@_03JOKJFDD@CII?$AA@   10034624     vfp2c32.obj
 0002:00001628       ??_C@_0M@ENCCOMBC@AHeapBlocks?$AA@ 10034628     vfp2c32.obj
 0002:00001634       ??_C@_0O@ECPOFPDJ@AProcessHeaps?$AA@ 10034634     vfp2c32.obj
 0002:00001644       ??_C@_0BA@MDJJKIPP@AProcessModules?$AA@ 10034644     vfp2c32.obj
 0002:00001654       ??_C@_02FDNJOBDI@CI?$AA@   10034654     vfp2c32.obj
 0002:00001658       ??_C@_0BA@CDANHIJP@AProcessThreads?$AA@ 10034658     vfp2c32.obj
 0002:00001668       ??_C@_0L@ICKFCJDC@AProcesses?$AA@ 10034668     vfp2c32.obj
 0002:00001674       ??_C@_0L@FLHFJDMC@UInt642Str?$AA@ 10034674     vfp2c32.obj
 0002:00001680       ??_C@_0L@JDBCGGAB@Str2UInt64?$AA@ 10034680     vfp2c32.obj
 0002:0000168c       ??_C@_03GFJLFHLC@?$DP?4I?$AA@ 1003468c     vfp2c32.obj
 0002:00001690       ??_C@_09NKJBDLDO@Int642Str?$AA@ 10034690     vfp2c32.obj
 0002:0000169c       ??_C@_03EEHCEIJG@C?4I?$AA@ 1003469c     vfp2c32.obj
 0002:000016a0       ??_C@_09EDFENFBL@Str2Int64?$AA@ 100346a0     vfp2c32.obj
 0002:000016ac       ??_C@_09MNJHLIBN@Float2Str?$AA@ 100346ac     vfp2c32.obj
 0002:000016b8       ??_C@_09NGFAJDAA@Str2Float?$AA@ 100346b8     vfp2c32.obj
 0002:000016c4       ??_C@_01NANMIPIL@N?$AA@    100346c4     vfp2c32.obj
 0002:000016c8       ??_C@_0L@KCHIHCPF@Double2Str?$AA@ 100346c8     vfp2c32.obj
 0002:000016d4       ??_C@_0L@CDIHHOPD@Str2Double?$AA@ 100346d4     vfp2c32.obj
 0002:000016e0       ??_C@_01OGPIMHDM@?$DP?$AA@ 100346e0     vfp2c32.obj
 0002:000016e4       ??_C@_09PAPFAAIJ@ULong2Str?$AA@ 100346e4     vfp2c32.obj
 0002:000016f0       ??_C@_09PIGAMKJO@Str2ULong?$AA@ 100346f0     vfp2c32.obj
 0002:000016fc       ??_C@_08KKELDBFN@Long2Str?$AA@ 100346fc     vfp2c32.obj
 0002:00001708       ??_C@_08NOMFCHHL@Str2Long?$AA@ 10034708     vfp2c32.obj
 0002:00001714       ??_C@_0L@IGCOINBC@UShort2Str?$AA@ 10034714     vfp2c32.obj
 0002:00001720       ??_C@_0L@LOONAINL@Str2UShort?$AA@ 10034720     vfp2c32.obj
 0002:0000172c       ??_C@_09HMKCFOO@Short2Str?$AA@ 1003472c     vfp2c32.obj
 0002:00001738       ??_C@_09GOKLLLMB@Str2Short?$AA@ 10034738     vfp2c32.obj
 0002:00001744       ??_C@_0BF@JOAMMMFO@MarshalCArray2Cursor?$AA@ 10034744     vfp2c32.obj
 0002:0000175c       ??_C@_07HKDONEGE@ICI?4I?4I?$AA@ 1003475c     vfp2c32.obj
 0002:00001764       ??_C@_0BF@MKODOMFG@MarshalCursor2CArray?$AA@ 10034764     vfp2c32.obj
 0002:0000177c       ??_C@_0BH@NDFMMBJC@MarshalCArray2FoxArray?$AA@ 1003477c     vfp2c32.obj
 0002:00001794       ??_C@_07LLJHEDBO@IRI?4I?4I?$AA@ 10034794     vfp2c32.obj
 0002:0000179c       ??_C@_0BH@DLHMPMKK@MarshalFoxArray2CArray?$AA@ 1003479c     vfp2c32.obj
 0002:000017b4       ??_C@_09MMNJPACI@ReadBytes?$AA@ 100347b4     vfp2c32.obj
 0002:000017c0       ??_C@_0P@GLLBELBF@ReadWCharArray?$AA@ 100347c0     vfp2c32.obj
 0002:000017d0       ??_C@_05JEIKMCPM@I?4I?4?$DP?$AA@ 100347d0     vfp2c32.obj
 0002:000017d8       ??_C@_0N@GCAMNKJF@ReadPWString?$AA@ 100347d8     vfp2c32.obj
 0002:000017e8       ??_C@_0M@DKOHCONB@ReadWString?$AA@ 100347e8     vfp2c32.obj
 0002:000017f4       ??_C@_0O@GMEPLKHJ@ReadCharArray?$AA@ 100347f4     vfp2c32.obj
 0002:00001804       ??_C@_0N@JKPNOFEE@ReadPCString?$AA@ 10034804     vfp2c32.obj
 0002:00001814       ??_C@_0M@MCBGBBAA@ReadCString?$AA@ 10034814     vfp2c32.obj
 0002:00001820       ??_C@_0N@IEMBPBNL@ReadPPointer?$AA@ 10034820     vfp2c32.obj
 0002:00001830       ??_C@_0M@NMCKAFJP@ReadPointer?$AA@ 10034830     vfp2c32.obj
 0002:0000183c       ??_C@_0N@DJHJJAPK@ReadPLogical?$AA@ 1003483c     vfp2c32.obj
 0002:0000184c       ??_C@_0M@GBJCGELO@ReadLogical?$AA@ 1003484c     vfp2c32.obj
 0002:00001858       ??_C@_0M@KPNJJKCN@ReadPDouble?$AA@ 10034858     vfp2c32.obj
 0002:00001864       ??_C@_0L@CMGBMPBA@ReadDouble?$AA@ 10034864     vfp2c32.obj
 0002:00001870       ??_C@_0L@FLMILOFO@ReadPFloat?$AA@ 10034870     vfp2c32.obj
 0002:0000187c       ??_C@_09DABIEEEJ@ReadFloat?$AA@ 1003487c     vfp2c32.obj
 0002:00001888       ??_C@_0M@BPEMICNP@ReadPUInt64?$AA@ 10034888     vfp2c32.obj
 0002:00001894       ??_C@_0L@JMPENHOC@ReadUInt64?$AA@ 10034894     vfp2c32.obj
 0002:000018a0       ??_C@_0L@MOMMPIEF@ReadPInt64?$AA@ 100348a0     vfp2c32.obj
 0002:000018ac       ??_C@_09KFBMACFC@ReadInt64?$AA@ 100348ac     vfp2c32.obj
 0002:000018b8       ??_C@_09MHKDMIOH@ReadPUInt?$AA@ 100348b8     vfp2c32.obj
 0002:000018c4       ??_C@_08HMAICLLH@ReadUInt?$AA@ 100348c4     vfp2c32.obj
 0002:000018d0       ??_C@_08LEOIKEMH@ReadPInt?$AA@ 100348d0     vfp2c32.obj
 0002:000018dc       ??_C@_07BEEMPHHC@ReadInt?$AA@ 100348dc     vfp2c32.obj
 0002:000018e4       ??_C@_0M@DCLDOMAF@ReadPUShort?$AA@ 100348e4     vfp2c32.obj
 0002:000018f0       ??_C@_0L@LBALLJDI@ReadUShort?$AA@ 100348f0     vfp2c32.obj
 0002:000018fc       ??_C@_0L@ODDDJGJP@ReadPShort?$AA@ 100348fc     vfp2c32.obj
 0002:00001908       ??_C@_09IIODGMII@ReadShort?$AA@ 10034908     vfp2c32.obj
 0002:00001914       ??_C@_0L@CJDGGIOI@ReadPUInt8?$AA@ 10034914     vfp2c32.obj
 0002:00001920       ??_C@_09ECOGJCPP@ReadUInt8?$AA@ 10034920     vfp2c32.obj
 0002:0000192c       ??_C@_09BCCLADEM@ReadPInt8?$AA@ 1003492c     vfp2c32.obj
 0002:00001938       ??_C@_08KJIAOABM@ReadInt8?$AA@ 10034938     vfp2c32.obj
 0002:00001944       ??_C@_09GNILICCF@ReadPChar?$AA@ 10034944     vfp2c32.obj
 0002:00001950       ??_C@_08NGCAGBHF@ReadChar?$AA@ 10034950     vfp2c32.obj
 0002:0000195c       ??_C@_0O@CDGHMLCB@WritePLogical?$AA@ 1003495c     vfp2c32.obj
 0002:0000196c       ??_C@_02CDDJJAKL@IL?$AA@   1003496c     vfp2c32.obj
 0002:00001970       ??_C@_0N@KFBNMCKK@WriteLogical?$AA@ 10034970     vfp2c32.obj
 0002:00001980       ??_C@_0L@COBECFCK@WriteBytes?$AA@ 10034980     vfp2c32.obj
 0002:0000198c       ??_C@_0M@PFLCOEHD@WritePWChar?$AA@ 1003498c     vfp2c32.obj
 0002:00001998       ??_C@_0L@JCEDGHJP@WriteWChar?$AA@ 10034998     vfp2c32.obj
 0002:000019a4       ??_C@_05IMENKPHA@ICI?4I?$AA@ 100349a4     vfp2c32.obj
 0002:000019ac       ??_C@_0BA@PFMEMFKD@WriteWCharArray?$AA@ 100349ac     vfp2c32.obj
 0002:000019bc       ??_C@_04NHBOEFIL@I?$DP?4I?$AA@ 100349bc     vfp2c32.obj
 0002:000019c4       ??_C@_0O@HIBCIBEO@WritePWString?$AA@ 100349c4     vfp2c32.obj
 0002:000019d4       ??_C@_0N@POGIIIMF@WriteWString?$AA@ 100349d4     vfp2c32.obj
 0002:000019e4       ??_C@_04PGPHFKKP@IC?4I?$AA@ 100349e4     vfp2c32.obj
 0002:000019ec       ??_C@_0P@HNFEKPHO@WriteCharArray?$AA@ 100349ec     vfp2c32.obj
 0002:000019fc       ??_C@_0P@DPHNAEKP@WriteGPCString?$AA@ 100349fc     vfp2c32.obj
 0002:00001a0c       ??_C@_0O@IAODLOJP@WritePCString?$AA@ 10034a0c     vfp2c32.obj
 0002:00001a1c       ??_C@_0N@GJJLHBE@WriteCString?$AA@ 10034a1c     vfp2c32.obj
 0002:00001a2c       ??_C@_0N@GLFGDMDJ@WritePDouble?$AA@ 10034a2c     vfp2c32.obj
 0002:00001a3c       ??_C@_0M@MCINGDOJ@WriteDouble?$AA@ 10034a3c     vfp2c32.obj
 0002:00001a48       ??_C@_0M@LFCEBCKH@WritePFloat?$AA@ 10034a48     vfp2c32.obj
 0002:00001a54       ??_C@_0L@NCNFJBEL@WriteFloat?$AA@ 10034a54     vfp2c32.obj
 0002:00001a60       ??_C@_0O@JONPKKAA@WritePPointer?$AA@ 10034a60     vfp2c32.obj
 0002:00001a70       ??_C@_0N@BIKFKDIL@WritePointer?$AA@ 10034a70     vfp2c32.obj
 0002:00001a80       ??_C@_0N@NLMDCEML@WritePUInt64?$AA@ 10034a80     vfp2c32.obj
 0002:00001a90       ??_C@_0M@HCBIHLBL@WriteUInt64?$AA@ 10034a90     vfp2c32.obj
 0002:00001a9c       ??_C@_0M@CACAFELM@WritePInt64?$AA@ 10034a9c     vfp2c32.obj
 0002:00001aa8       ??_C@_02CHCLLKJO@I?$DP?$AA@ 10034aa8     vfp2c32.obj
 0002:00001aac       ??_C@_0L@EHNBNHFA@WriteInt64?$AA@ 10034aac     vfp2c32.obj
 0002:00001ab8       ??_C@_0L@CFGOBNOF@WritePUInt?$AA@ 10034ab8     vfp2c32.obj
 0002:00001ac4       ??_C@_02BBAPPCCJ@IN?$AA@   10034ac4     vfp2c32.obj
 0002:00001ac8       ??_C@_09JKHDNHO@WriteUInt?$AA@ 10034ac8     vfp2c32.obj
 0002:00001ad4       ??_C@_09MBEHLCAO@WritePInt?$AA@ 10034ad4     vfp2c32.obj
 0002:00001ae0       ??_C@_08NBPJKCLA@WriteInt?$AA@ 10034ae0     vfp2c32.obj
 0002:00001aec       ??_C@_0N@PGDMEKBB@WritePUShort?$AA@ 10034aec     vfp2c32.obj
 0002:00001afc       ??_C@_0M@FPOHBFMB@WriteUShort?$AA@ 10034afc     vfp2c32.obj
 0002:00001b08       ??_C@_0M@NNPDKGG@WritePShort?$AA@ 10034b08     vfp2c32.obj
 0002:00001b14       ??_C@_0L@GKCOLJIK@WriteShort?$AA@ 10034b14     vfp2c32.obj
 0002:00001b20       ??_C@_0M@MHNKMEBB@WritePUInt8?$AA@ 10034b20     vfp2c32.obj
 0002:00001b2c       ??_C@_0L@KACLEHPN@WriteUInt8?$AA@ 10034b2c     vfp2c32.obj
 0002:00001b38       ??_C@_0L@PAOGNGEO@WritePInt8?$AA@ 10034b38     vfp2c32.obj
 0002:00001b44       ??_C@_09NMCPPGNF@WriteInt8?$AA@ 10034b44     vfp2c32.obj
 0002:00001b50       ??_C@_0L@IPEGFHCH@WritePChar?$AA@ 10034b50     vfp2c32.obj
 0002:00001b5c       ??_C@_02KEKBIMGE@IC?$AA@   10034b5c     vfp2c32.obj
 0002:00001b60       ??_C@_09KDIPHHLM@WriteChar?$AA@ 10034b60     vfp2c32.obj
 0002:00001b6c       ??_C@_0O@HNJJBBHN@UnlockHGlobal?$AA@ 10034b6c     vfp2c32.obj
 0002:00001b7c       ??_C@_0M@JIHLAGDD@LockHGlobal?$AA@ 10034b7c     vfp2c32.obj
 0002:00001b88       ??_C@_04JJEKLKML@II?4I?$AA@ 10034b88     vfp2c32.obj
 0002:00001b90       ??_C@_0P@FKDAMABN@ReAllocHGlobal?$AA@ 10034b90     vfp2c32.obj
 0002:00001ba0       ??_C@_0M@NCPCMMEL@FreeHGlobal?$AA@ 10034ba0     vfp2c32.obj
 0002:00001bac       ??_C@_03CLMPKIPC@I?4I?$AA@ 10034bac     vfp2c32.obj
 0002:00001bb0       ??_C@_0N@KMPGDBJP@AllocHGlobal?$AA@ 10034bb0     vfp2c32.obj
 0002:00001bc0       ??_C@_01GFHCPBMG@C?$AA@    10034bc0     vfp2c32.obj
 0002:00001bc4       ??_C@_0L@GLCDGIFJ@AMemBlocks?$AA@ 10034bc4     vfp2c32.obj
 0002:00001bd0       ??_C@_0L@KCIAHJAI@CompactMem?$AA@ 10034bd0     vfp2c32.obj
 0002:00001bdc       ??_C@_0M@LCBNJOLO@ValidateMem?$AA@ 10034bdc     vfp2c32.obj
 0002:00001be8       ??_C@_09EFMFNFLC@SizeOfMem?$AA@ 10034be8     vfp2c32.obj
 0002:00001bf4       ??_C@_03GGFHHFFH@III?$AA@  10034bf4     vfp2c32.obj
 0002:00001bf8       ??_C@_0N@CONOMCAH@FreeRefArray?$AA@ 10034bf8     vfp2c32.obj
 0002:00001c08       ??_C@_08BEJOKJJA@FreePMem?$AA@ 10034c08     vfp2c32.obj
 0002:00001c14       ??_C@_07PAACNAOL@FreeMem?$AA@ 10034c14     vfp2c32.obj
 0002:00001c1c       ??_C@_0L@FBNOENDA@ReAllocMem?$AA@ 10034c1c     vfp2c32.obj
 0002:00001c28       ??_C@_02FOEOGEOO@II?$AA@   10034c28     vfp2c32.obj
 0002:00001c2c       ??_C@_0L@ODCPMFEI@AllocMemTo?$AA@ 10034c2c     vfp2c32.obj
 0002:00001c38       ??_C@_01JPJNBJEM@I?$AA@    10034c38     vfp2c32.obj
 0002:00001c3c       ??_C@_08MLEMEDKD@AllocMem?$AA@ 10034c3c     vfp2c32.obj
 0002:00001c48       ??_C@_03FCKKHGIC@I?4?$DP?$AA@ 10034c48     vfp2c32.obj
 0002:00001c4c       ??_C@_08EPCKMOJ@VFP2CSys?$AA@ 10034c4c     vfp2c32.obj
 0002:00001c58       ??_C@_08OJKMEPJJ@OnUnload?$AA@ 10034c58     vfp2c32.obj
 0002:00001c64       ??_C@_06FEOMBGJC@OnLoad?$AA@ 10034c64     vfp2c32.obj
 0002:00001c6c       ??_C@_0O@PALNIPPI@FormatMessage?$AA@ 10034c6c     vfp2c32.obj
 0002:00001c7c       ??_C@_0M@GHNGLNFH@vfp2c32?4fll?$AA@ 10034c7c     vfp2c32.obj
 0002:00001c88       ??_C@_00CNPNBAHC@?$AA@     10034c88     vfp2c32.obj
 0002:00001cd0       ?Asm_Types@RuntimeAssembler@@0QAY02$$CBHA 10034cd0     vfp2cassembly.obj
 0002:00002124       ??_C@_06JBKGCNBB@Delete?$AA@ 10035124     vfp2c32.obj
 0002:0000212c       ??_C@_08KAAPDIAN@NoRemove?$AA@ 1003512c     vfp2c32.obj
 0002:00002138       ??_C@_0M@DBGDLGLL@ForceRemove?$AA@ 10035138     vfp2c32.obj
 0002:00002144       ??_C@_03LAIAPFCB@Val?$AA@  10035144     vfp2c32.obj
 0002:00002148       ??_C@_01HMGJMAIH@B?$AA@    10035148     vfp2c32.obj
 0002:0000214c       ??_C@_01CKDDGHAB@D?$AA@    1003514c     vfp2c32.obj
 0002:00002150       ??_C@_01PLPBNMEI@M?$AA@    10035150     vfp2c32.obj
 0002:00002154       ??_C@_01CPLAODJH@S?$AA@    10035154     vfp2c32.obj
 0002:00002158       _CLSID_StdGlobalInterfaceTable 10035158     vfp2c32.obj
 0002:00002168       ??_7WaitForObjectThread@@6B@ 10035168     vfp2casync.obj
 0002:00002174       ??_7FindRegistryChangeThread@@6B@ 10035174     vfp2casync.obj
 0002:00002180       ??_7FindFileChangeExThread@@6B@ 10035180     vfp2casync.obj
 0002:0000218c       ??_7FindFileChangeThread@@6B@ 1003518c     vfp2casync.obj
 0002:00002198       ??_7CThread@@6B@           10035198     vfp2casync.obj
 0002:0000229c       ??_C@_0BJ@JEILFGN@IDispatch?3?3GetIDsOfNames?$AA@ 1003529c     vfp2casync.obj
 0002:000022b8       ??_C@_04HBLBEAJL@?$CI?$CFU?$CJ?$AA@ 100352b8     vfp2casync.obj
 0002:000022c0       ??_C@_07NJFIGCKH@?$CI?$CFU?0?$CFI?$CJ?$AA@ 100352c0     vfp2casync.obj
 0002:000022c8       ??_C@_0BI@ILHBFDHH@RegNotifyChangeKeyValue?$AA@ 100352c8     vfp2casync.obj
 0002:000022e0       ??_C@_0N@DPBOPECK@RegOpenKeyEx?$AA@ 100352e0     vfp2casync.obj
 0002:000022f0       ??_C@_0BL@CDJOPPAK@?$CI?$CFU?0?$CFU?0ReadCString?$CI?$CFU?$CJ?0?$CFU?$CJ?$AA@ 100352f0     vfp2casync.obj
 0002:0000230c       ??_C@_0CI@OHPCPJLK@?$CI?$CFU?0?$CFU?0ReadCString?$CI?$CFU?$CJ?0ReadCStri@ 1003530c     vfp2casync.obj
 0002:00002334       ??_C@_0BI@CDNAHDKM@?$CI?$CFU?0?$CFU?0ReadCString?$CI?$CFU?$CJ?$CJ?$AA@ 10035334     vfp2casync.obj
 0002:0000234c       ??_C@_02MLMCGJHF@?$CFW?$AA@ 1003534c     vfp2casync.obj
 0002:00002350       ??_C@_0BG@LFBHFCIP@ReadDirectoryChangesW?$AA@ 10035350     vfp2casync.obj
 0002:00002368       ??_C@_0BH@ONGCGKCK@CreateIoCompletionPort?$AA@ 10035368     vfp2casync.obj
 0002:00002380       ??_C@_0L@KLBPNCIB@CreateFile?$AA@ 10035380     vfp2casync.obj
 0002:0000238c       ??_C@_0BH@LBENJJIP@WaitForMultipleObjects?$AA@ 1003538c     vfp2casync.obj
 0002:000023a4       ??_C@_0BL@KFGJMHNK@FindNextChangeNotification?$AA@ 100353a4     vfp2casync.obj
 0002:000023c0       ??_C@_0N@CHJCLEHA@?$CI?$CFU?0?8?$CFS?8?0?$CFU?$CJ?$AA@ 100353c0     vfp2casync.obj
 0002:000023d0       ??_C@_0BM@FOMDPKDD@FindFirstChangeNotification?$AA@ 100353d0     vfp2casync.obj
 0002:000023ec       ??_C@_0BA@MHCFBHFA@RegisterClassEx?$AA@ 100353ec     vfp2casync.obj
 0002:000023fc       ??_C@_0P@MMPDBECM@CreateWindowEx?$AA@ 100353fc     vfp2casync.obj
 0002:0000240c       ??_C@_0N@KADMMLDC@__VFP2C_ASWC?$AA@ 1003540c     vfp2casync.obj
 0002:0000241c       ??_C@_0M@MEDOMCAA@CreateEvent?$AA@ 1003541c     vfp2casync.obj
 0002:00002428       ??_C@_0BF@JNLCMDLE@_VFP?4AutoYield?5?$DN?5?4T?4?$AA@ 10035428     vfp2casync.obj
 0002:00002440       ??_C@_0BF@ICBALEKK@_VFP?4AutoYield?5?$DN?5?4F?4?$AA@ 10035440     vfp2casync.obj
 0002:00002458       ??_C@_0P@LFKCHFIA@_VFP?4AutoYield?$AA@ 10035458     vfp2casync.obj
 0002:00002468       __GUID_00000146_0000_0000_c000_000000000046 10035468     vfp2casynccom.obj
 0002:00002478       __GUID_00000000_0000_0000_c000_000000000046 10035478     vfp2casynccom.obj
 0002:00002488       __GUID_00020400_0000_0000_c000_000000000046 10035488     vfp2casynccom.obj
 0002:00002488       _IID_IDispatch             10035488     uuid:oaidl_i.obj
 0002:00002498       ??_7CThreadedComObject@@6B@ 10035498     vfp2casynccom.obj
 0002:000024b4       ??_7CComCallInfo@@6B@      100354b4     vfp2casynccom.obj
 0002:000024d0       ??_C@_1DO@GCIICCAI@?$AAC?$AAo?$AAG?$AAe?$AAt?$AAI?$AAn?$AAt?$AAe?$AAr?$AAf?$AAa?$AAc?$AAe?$AAA?$AAn?$AAd?$AAR?$AAe?$AAl@ 100354d0     vfp2casynccom.obj
 0002:00002510       ??_C@_0BK@LPJAAOIP@MsgWaitForMultipleObjects?$AA@ 10035510     vfp2casynccom.obj
 0002:0000252c       ??_C@_0DB@NIMAPKNO@IGlobalInterfaceTable?3?3RegisterI@ 1003552c     vfp2casynccom.obj
 0002:00002560       ??_C@_0BC@GKMJCKHL@CComBSTR?3?3ToLower?$AA@ 10035560     vfp2casynccom.obj
 0002:00002574       ??_C@_0BM@IGDOHIDN@ITypeInfo?3?3GetDocumentation?$AA@ 10035574     vfp2casynccom.obj
 0002:00002590       ??_C@_0BH@FDGPGEEF@ITypeInfo?3?3GetFuncDesc?$AA@ 10035590     vfp2casynccom.obj
 0002:000025a8       ??_C@_1BO@IJLLGEIO@?$AAg?$AAe?$AAt?$AAc?$AAa?$AAl?$AAl?$AAr?$AAu?$AAn?$AAt?$AAi?$AAm?$AAe?$AA?$AA@ 100355a8     vfp2casynccom.obj
 0002:000025c8       ??_C@_1CC@HEPDKJAB@?$AAg?$AAe?$AAt?$AAc?$AAa?$AAl?$AAl?$AAq?$AAu?$AAe?$AAu?$AAe?$AAs?$AAi?$AAz?$AAe?$AA?$AA@ 100355c8     vfp2casynccom.obj
 0002:000025ec       ??_C@_1BI@OBPFLPLG@?$AAc?$AAa?$AAl?$AAl?$AAc?$AAo?$AAn?$AAt?$AAe?$AAx?$AAt?$AA?$AA@ 100355ec     vfp2casynccom.obj
 0002:00002604       ??_C@_1BC@FKLNPCAN@?$AAt?$AAh?$AAr?$AAe?$AAa?$AAd?$AAi?$AAd?$AA?$AA@ 10035604     vfp2casynccom.obj
 0002:00002618       ??_C@_1O@EJHDPCJ@?$AAo?$AAb?$AAj?$AAe?$AAc?$AAt?$AA?$AA@ 10035618     vfp2casynccom.obj
 0002:00002628       ??_C@_1BE@OLOHLDOI@?$AAa?$AAb?$AAo?$AAr?$AAt?$AAc?$AAa?$AAl?$AAl?$AA?$AA@ 10035628     vfp2casynccom.obj
 0002:0000263c       ??_C@_0BH@BBJNJFGM@ITypeInfo?3?3GetTypeAttr?$AA@ 1003563c     vfp2casynccom.obj
 0002:00002654       ??_C@_0BH@POIHHCFE@ITypeInfo?3?3GetTypeInfo?$AA@ 10035654     vfp2casynccom.obj
 0002:0000266c       ??_C@_0BB@FBCNKNOO@CoCreateInstance?$AA@ 1003566c     vfp2casynccom.obj
 0002:00002680       ??_C@_0BP@JHBANKGB@CoGetInterfaceAndReleaseStream?$AA@ 10035680     vfp2casynccom.obj
 0002:000026a0       ??_C@_0P@KHOCNDJK@CoInitializeEx?$AA@ 100356a0     vfp2casynccom.obj
 0002:000026b0       ??_C@_1BC@NMILJADK@?$AAc?$AAa?$AAl?$AAl?$AAi?$AAn?$AAf?$AAo?$AA?$AA@ 100356b0     vfp2casynccom.obj
 0002:000026c4       ??_C@_0BE@CLKLPNNG@WaitForSingleObject?$AA@ 100356c4     vfp2casynccom.obj
 0002:000026d8       ??_C@_0BE@OBFNOKAA@Function?5timed?5out?4?$AA@ 100356d8     vfp2casynccom.obj
 0002:000026ec       ??_C@_0P@EMFCCH@_beginthreadex?$AA@ 100356ec     vfp2casynccom.obj
 0002:000026fc       ??_C@_0CN@NOGOFCLB@Function?5failed?5with?5errno?3?5?$CFU?5_@ 100356fc     vfp2casynccom.obj
 0002:0000272c       ??_C@_0CG@DNMFLAOH@CoMarshalInterThreadInterfaceInS@ 1003572c     vfp2casynccom.obj
 0002:00002754       ??_C@_0BF@MOMPEHJO@CreateThreadedObject?$AA@ 10035754     vfp2casynccom.obj
 0002:00002770       ??_C@_0EH@BAFKFMOI@The?5callback?5object?5does?5not?5imp@ 10035770     vfp2casynccom.obj
 0002:000027b8       ??_C@_1BA@HIALCJPD@?$AAO?$AAn?$AAE?$AAr?$AAr?$AAo?$AAr?$AA?$AA@ 100357b8     vfp2casynccom.obj
 0002:000027c8       ??_C@_1BO@DKEIJLED@?$AAO?$AAn?$AAC?$AAa?$AAl?$AAl?$AAC?$AAo?$AAm?$AAp?$AAl?$AAe?$AAt?$AAe?$AA?$AA@ 100357c8     vfp2casynccom.obj
 0002:000027e8       ??_C@_1O@HAOHBOIP@?$AAC?$AAa?$AAl?$AAl?$AAI?$AAd?$AA?$AA@ 100357e8     vfp2casynccom.obj
 0002:000027f8       ??_C@_1BI@IBMDKLB@?$AAC?$AAa?$AAl?$AAl?$AAC?$AAo?$AAn?$AAt?$AAe?$AAx?$AAt?$AA?$AA@ 100357f8     vfp2casynccom.obj
 0002:00002810       ??_C@_1BA@JCPMFPEO@?$AAA?$AAb?$AAo?$AAr?$AAt?$AAe?$AAd?$AA?$AA@ 10035810     vfp2casynccom.obj
 0002:00002820       ??_C@_1BG@MIPEILJE@?$AAA?$AAb?$AAo?$AAr?$AAt?$AAE?$AAv?$AAe?$AAn?$AAt?$AA?$AA@ 10035820     vfp2casynccom.obj
 0002:00002838       ??_C@_0N@INLGGFKI@SYS?$CI3096?0?$CFI?$CJ?$AA@ 10035838     vfp2casynccom.obj
 0002:00002848       ??_C@_05JNMOOLLA@DConv?$AA@ 10035848     vfp2ccallback.obj
 0002:00002850       ??_C@_06DEJKJDN@UINT64?$AA@ 10035850     vfp2ccallback.obj
 0002:00002858       ??_C@_08OEFOFFOA@CURRENCY?$AA@ 10035858     vfp2ccallback.obj
 0002:00002864       ??_C@_07HOOAHKJB@LITERAL?$AA@ 10035864     vfp2ccallback.obj
 0002:0000286c       ??_C@_06FJHKNKMG@BINARY?$AA@ 1003586c     vfp2ccallback.obj
 0002:00002874       ??_C@_05FOAKBBPA@INT64?$AA@ 10035874     vfp2ccallback.obj
 0002:0000287c       ??_C@_06BJLJNGLL@DOUBLE?$AA@ 1003587c     vfp2ccallback.obj
 0002:00002884       ??_C@_06ENHHMBEH@SINGLE?$AA@ 10035884     vfp2ccallback.obj
 0002:0000288c       ??_C@_04PPJDIBFE@BOOL?$AA@ 1003588c     vfp2ccallback.obj
 0002:00002894       ??_C@_06IDHPKFKF@USHORT?$AA@ 10035894     vfp2ccallback.obj
 0002:0000289c       ??_C@_05NODMBNGI@SHORT?$AA@ 1003589c     vfp2ccallback.obj
 0002:000028a4       ??_C@_07JNMBHMBK@UNICODE?$AA@ 100358a4     vfp2ccallback.obj
 0002:000028ac       ??_C@_04GIMEDCLA@ANSI?$AA@ 100358ac     vfp2ccallback.obj
 0002:000028b4       ??_C@_06IGECGLFO@STRING?$AA@ 100358b4     vfp2ccallback.obj
 0002:000028bc       ??_C@_05IJDGEDDD@ULONG?$AA@ 100358bc     vfp2ccallback.obj
 0002:000028c4       ??_C@_08PMMGLFCL@UINTEGER?$AA@ 100358c4     vfp2ccallback.obj
 0002:000028d0       ??_C@_04KCJFIMMJ@LONG?$AA@ 100358d0     vfp2ccallback.obj
 0002:000028d8       ??_C@_07EHCIHKNF@INTEGER?$AA@ 100358d8     vfp2ccallback.obj
 0002:000028e0       ??_C@_02HCKGKOFO@?$CI?$CJ?$AA@ 100358e0     vfp2ccallback.obj
 0002:000028e4       ??_C@_01ODHLEDKK@?$CI?$AA@ 100358e4     vfp2ccallback.obj
 0002:000028e8       ??_C@_08LINPKKPE@ErrorOut?$AA@ 100358e8     vfp2ccallback.obj
 0002:000028f4       ??_C@_07OFNMHBKJ@pBuffer?$AA@ 100358f4     vfp2ccallback.obj
 0002:000028fc       ??_C@_04GKJNKENE@void?$AA@ 100358fc     vfp2ccallback.obj
 0002:00002904       ??_C@_0P@NMGDGBM@__VFP2C_CBO_?$CFU?$AA@ 10035904     vfp2ccallback.obj
 0002:00002914       ??_C@_0O@COMBIEHI@AutoYieldBack?$AA@ 10035914     vfp2ccallback.obj
 0002:00002924       ??_C@_0N@PEEKPLEN@BOOL?$CIlParam?$CJ?$AA@ 10035924     vfp2ccallback.obj
 0002:00002934       ??_C@_0N@NFJLNGDA@BOOL?$CIwParam?$CJ?$AA@ 10035934     vfp2ccallback.obj
 0002:00002944       ??_C@_0BJ@PNGLPDMG@UNSIGNED?$CILOWORD?$CIlParam?$CJ?$CJ?$AA@ 10035944     vfp2ccallback.obj
 0002:00002960       ??_C@_0BJ@LKAGLLD@UNSIGNED?$CIHIWORD?$CIlParam?$CJ?$CJ?$AA@ 10035960     vfp2ccallback.obj
 0002:0000297c       ??_C@_0BJ@NDPOCPGK@UNSIGNED?$CILOWORD?$CIwParam?$CJ?$CJ?$AA@ 1003597c     vfp2ccallback.obj
 0002:00002998       ??_C@_0BJ@CFDFLHBP@UNSIGNED?$CIHIWORD?$CIwParam?$CJ?$CJ?$AA@ 10035998     vfp2ccallback.obj
 0002:000029b4       ??_C@_0P@GLFDPDEH@LOWORD?$CIlParam?$CJ?$AA@ 100359b4     vfp2ccallback.obj
 0002:000029c4       ??_C@_0P@BJONNNJC@HIWORD?$CIlParam?$CJ?$AA@ 100359c4     vfp2ccallback.obj
 0002:000029d4       ??_C@_0P@EKICNODK@LOWORD?$CIwParam?$CJ?$AA@ 100359d4     vfp2ccallback.obj
 0002:000029e4       ??_C@_0P@DIDMPAOP@HIWORD?$CIwParam?$CJ?$AA@ 100359e4     vfp2ccallback.obj
 0002:000029f4       ??_C@_0BB@IFGNDNNA@UNSIGNED?$CIlParam?$CJ?$AA@ 100359f4     vfp2ccallback.obj
 0002:00002a08       ??_C@_0BB@KELMBAKN@UNSIGNED?$CIwParam?$CJ?$AA@ 10035a08     vfp2ccallback.obj
 0002:00002a1c       ??_C@_0O@HEBMGKLK@?$CI?$CFU?0?$CFU?0?$CFI?0?$CFI?$CJ?$AA@ 10035a1c     vfp2ccallback.obj
 0002:00002a2c       ??_C@_0P@JHLNAHOA@AutoYieldFalse?$AA@ 10035a2c     vfp2ccallback.obj
 0002:00002a3c       ??_C@_01LFCBOECM@?4?$AA@   10035a3c     vfp2ccallback.obj
 0002:00002a40       ??_C@_03DBKJMAGF@End?$AA@  10035a40     vfp2ccallback.obj
 0002:00002a44       ??_C@_0P@HILJMANF@CallWindowProc?$AA@ 10035a44     vfp2ccallback.obj
 0002:00002a54       ??_C@_0L@OPEAEIBE@vAutoYield?$AA@ 10035a54     vfp2ccallback.obj
 0002:00002a60       ??_C@_07HOPIENDL@vRetVal?$AA@ 10035a60     vfp2ccallback.obj
 0002:00002a68       ??_C@_06NOCJIMPA@lParam?$AA@ 10035a68     vfp2ccallback.obj
 0002:00002a70       ??_C@_06LLPAEEME@wParam?$AA@ 10035a70     vfp2ccallback.obj
 0002:00002a78       ??_C@_04BNJKMMNE@uMsg?$AA@ 10035a78     vfp2ccallback.obj
 0002:00002a80       ??_C@_04IFJNELPM@hWnd?$AA@ 10035a80     vfp2ccallback.obj
 0002:00002a88       ??_C@_0BB@GOHLODMA@EnumChildWindows?$AA@ 10035a88     vfp2ccallback.obj
 0002:00002a9c       ??_C@_0N@KPNPEKBD@SetClassLong?$AA@ 10035a9c     vfp2ccallback.obj
 0002:00002aac       ??_C@_0N@NLGBIGFP@GetClassLong?$AA@ 10035aac     vfp2ccallback.obj
 0002:00002abc       ??_C@_0O@KDOAPA@SetWindowLong?$AA@ 10035abc     vfp2ccallback.obj
 0002:00002acc       ??_C@_0O@HPLNFDIH@GetWindowLong?$AA@ 10035acc     vfp2ccallback.obj
 0002:00002adc       ??_C@_0CP@EAOELLHL@There?5is?5no?5message?5binding?5for?5@ 10035adc     vfp2ccallback.obj
 0002:00002b0c       ??_C@_0CM@JGPIEPAE@There?5are?5no?5message?5bindings?5fo@ 10035b0c     vfp2ccallback.obj
 0002:00002b38       ??_C@_0BF@BKIBJOAN@__VFP2C_WCBO?$CFU_?$CFU_?$CFU?$AA@ 10035b38     vfp2ccallback.obj
 0002:00002b50       ??_C@_0L@ICEGIJOB@HeapCreate?$AA@ 10035b50     vfp2ccallback.obj
 0002:00002b5c       ??_C@_0N@DCFJKIKI@__VFP2C_CBWC?$AA@ 10035b5c     vfp2ccallback.obj
 0002:00002b6c       ??_C@_0N@OOCGNKLO@ROT?4Register?$AA@ 10035b6c     vfp2ccom.obj
 0002:00002b7c       ??_C@_0BC@NPMFDAKO@CreateFileMoniker?$AA@ 10035b7c     vfp2ccom.obj
 0002:00002b90       ??_C@_0BH@FELLBGOC@RegisterActiveObjectEx?$AA@ 10035b90     vfp2ccom.obj
 0002:00002ba8       ??_C@_0BO@OIAAMHKO@File?5contained?5invalid?5CLSID?4?$AA@ 10035ba8     vfp2ccom.obj
 0002:00002bc8       ??_C@_0N@LOFIHIBK@ReadClassStg?$AA@ 10035bc8     vfp2ccom.obj
 0002:00002bd8       ??_C@_0O@KEEGCDMB@WriteClassStg?$AA@ 10035bd8     vfp2ccom.obj
 0002:00002be8       ??_C@_0BB@IFCKKOAJ@StgCreateDocfile?$AA@ 10035be8     vfp2ccom.obj
 0002:00002bfc       ??_C@_0BG@JMJICKGG@GetRunningObjectTable?$AA@ 10035bfc     vfp2ccom.obj
 0002:00002c14       ??_C@_0N@KNBCBJMO@CoCreateGuid?$AA@ 10035c14     vfp2ccom.obj
 0002:00002c24       ??_C@_08JLNPKLIH@_Execute?$AA@ 10035c24     vfp2ccom.obj
 0002:00002c30       ??_C@_0BM@IOMLAHMO@Failed?5to?5DECLARE?5function?4?$AA@ 10035c30     vfp2ccom.obj
 0002:00002c50       ??_C@_0FD@KJJFIAJA@DECLARE?5INTEGER?5_GetIDispatch?$EA4?5@ 10035c50     vfp2ccom.obj
 0002:00002ca4       ??_C@_0BC@PGJLHJFJ@GetModuleFileName?$AA@ 10035ca4     vfp2ccom.obj
 0002:00002cb8       ??_C@_0BF@MPJEMKDH@__VFP2C_FLL_FILENAME?$AA@ 10035cb8     vfp2ccom.obj
 0002:00002cd0       ??_C@_0O@IPLLADNE@GetLocaleInfo?$AA@ 10035cd0     vfp2cconv.obj
 0002:00002ce0       ??_C@_0P@HOOAEOLC@ScreenToClient?$AA@ 10035ce0     vfp2cconv.obj
 0002:00002cf0       ??_C@_0N@MEBHNFCP@GetCursorPos?$AA@ 10035cf0     vfp2cconv.obj
 0002:00002d00       ??_C@_0N@HFDEJMEK@__VFP2C_TZWC?$AA@ 10035d00     vfp2ccppapi.obj
 0002:00002d10       ??_C@_0BE@FJMOKEGO@FIELD?$CI?$CFI?0?$CFI?$CJ?$CLCHR?$CI0?$CJ?$AA@ 10035d10     vfp2ccppapi.obj
 0002:00002d24       ??_C@_0L@BNJOEGMA@FCOUNT?$CI?$CFI?$CJ?$AA@ 10035d24     vfp2ccppapi.obj
 0002:00002d30       ??_C@_09PDKGINJF@SELECT?$CI0?$CJ?$AA@ 10035d30     vfp2ccppapi.obj
 0002:00002d3c       ??_C@_0BG@JCLDKCNC@CREATE?5CURSOR?5?$CFS?5?$CI?$CFS?$CJ?$AA@ 10035d3c     vfp2ccppapi.obj
 0002:00002d54       ??_C@_0N@DBJPCKND@SELECT?$CI?8?$CFS?8?$CJ?$AA@ 10035d54     vfp2ccppapi.obj
 0002:00002d64       ??_C@_0BB@JDHKPCCF@DIMENSION?5?$CFS?$FL?$CFU?$FN?$AA@ 10035d64     vfp2ccppapi.obj
 0002:00002d78       ??_C@_0BE@JOOAMGLE@DIMENSION?5?$CFS?$FL?$CFU?0?$CFU?$FN?$AA@ 10035d78     vfp2ccppapi.obj
 0002:00002d8c       ??_C@_0L@MODKDJAB@_AllocMemo?$AA@ 10035d8c     vfp2ccppapi.obj
 0002:00002d98       ??_C@_0BB@HHLEJGJC@Function?5failed?4?$AA@ 10035d98     vfp2ccppapi.obj
 0002:00002dac       ??_C@_09KDNFIKCC@_MemoChan?$AA@ 10035dac     vfp2ccppapi.obj
 0002:00002db8       ??_C@_0CB@HFCAPGIF@Function?5failed?5for?5workarea?5?$CFI?4@ 10035db8     vfp2ccppapi.obj
 0002:00002ddc       ??_C@_0BJ@DNAONIGH@CREATEOBJECT?$CI?8Relation?8?$CJ?$AA@ 10035ddc     vfp2ccppapi.obj
 0002:00002df8       ??_C@_0BG@GKINEJGL@CREATEOBJECT?$CI?8Empty?8?$CJ?$AA@ 10035df8     vfp2ccppapi.obj
 0002:00002e10       ??_C@_0BD@MBNGECHH@CREATEOBJECT?$CI?8?$CFS?8?$CJ?$AA@ 10035e10     vfp2ccppapi.obj
 0002:00002e24       ??_C@_05MCOCPDGC@?$HL?5?3?3?$HN?$AA@ 10035e24     vfp2ccppapi.obj
 0002:00002e2c       ??_C@_0CH@NNCGMPLE@?$HL?$FO?$CF04hu?9?$CF02hu?9?$CF02hu?5?$CF02hu?3?$CF02hu?3@ 10035e2c     vfp2ccppapi.obj
 0002:00002e54       ??_C@_0BF@KPJNHALE@FileTimeToSystemTime?$AA@ 10035e54     vfp2ccppapi.obj
 0002:00002e6c       ??_C@_0BI@EKFDIGHI@FileTimeToLocalFileTime?$AA@ 10035e6c     vfp2ccppapi.obj
 0002:00002e84       ??_C@_0BF@HBHGIPOG@SystemTimeToFileTime?$AA@ 10035e84     vfp2ccppapi.obj
 0002:00002e9c       ??_C@_0BE@HCIKGJGE@MultiByteToWideChar?$AA@ 10035e9c     vfp2ccppapi.obj
 0002:00002eb0       ??_C@_0BG@BLKPCALP@FULLPATH?$CI?$CC?$CFs?$CC?$CJ?$CLCHR?$CI0?$CJ?$AA@ 10035eb0     vfp2ccppapi.obj
 0002:00002ec8       ??_C@_0BG@NPMAFIHM@SafeArrayUnaccessData?$AA@ 10035ec8     vfp2ccppapi.obj
 0002:00002ee0       ??_C@_0BE@JGFGBPAG@SafeArrayAccessData?$AA@ 10035ee0     vfp2ccppapi.obj
 0002:00002ef4       ??_C@_0BE@NMOKCKEI@SafeArrayGetVartype?$AA@ 10035ef4     vfp2ccppapi.obj
 0002:00002f08       ??_C@_0BE@LJADKLBD@WideCharToMultiByte?$AA@ 10035f08     vfp2ccppapi.obj
 0002:00002f1c       ??_C@_0CJ@IAGONJHF@GetIDispatch?$CIm?4__VFP2C32_TEMP_CO@ 10035f1c     vfp2ccppapi.obj
 0002:00002f48       ??_C@_0EC@KODJAHKD@m?4__VFP2C32_TEMP_COMOBJECT?5?$DN?5_VF@ 10035f48     vfp2ccppapi.obj
 0002:00002f8c       ??_C@_0BJ@GHIDPNPE@__VFP2C32_TEMP_COMOBJECT?$AA@ 10035f8c     vfp2ccppapi.obj
 0002:00002fa8       ??_C@_0BG@LCMBHHPJ@__VFP2C32_TEMP_OBJECT?$AA@ 10035fa8     vfp2ccppapi.obj
 0002:00002fc0       ??_C@_0BA@GGCJKLIH@INT?$CIVERSION?$CI5?$CJ?$CJ?$AA@ 10035fc0     vfp2ccppapi.obj
 0002:00002fd0       ??_C@_0BE@FENGFHLF@EnumDisplaySettings?$AA@ 10035fd0     vfp2cenum.obj
 0002:00002fe4       ??_C@_0BG@LFDGAOMM@EnumResourceLanguages?$AA@ 10035fe4     vfp2cenum.obj
 0002:00002ffc       ??_C@_0BC@PBIBNIJO@EnumResourceNames?$AA@ 10035ffc     vfp2cenum.obj
 0002:00003010       ??_C@_0BC@KBCPKKGC@EnumResourceTypes?$AA@ 10036010     vfp2cenum.obj
 0002:00003024       ??_C@_0L@CMGAAJA@Heap32Next?$AA@ 10036024     vfp2cenum.obj
 0002:00003030       ??_C@_0M@PIAPHADL@Heap32First?$AA@ 10036030     vfp2cenum.obj
 0002:0000303c       ??_C@_0P@EPDKPNHA@Heap32ListNext?$AA@ 1003603c     vfp2cenum.obj
 0002:0000304c       ??_C@_0BA@JPDINEGG@HeapList32First?$AA@ 1003604c     vfp2cenum.obj
 0002:0000305c       ??_C@_0N@KIGOLBLC@Module32Next?$AA@ 1003605c     vfp2cenum.obj
 0002:0000306c       ??_C@_0O@CNMFJJGO@Module32First?$AA@ 1003606c     vfp2cenum.obj
 0002:0000307c       ??_C@_0N@LDGMJMKG@Thread32Next?$AA@ 1003607c     vfp2cenum.obj
 0002:0000308c       ??_C@_0O@DHAEEPDO@Thread32First?$AA@ 1003608c     vfp2cenum.obj
 0002:0000309c       ??_C@_0BJ@FFJLBIMH@CreateToolhelp32SnapShot?$AA@ 1003609c     vfp2cenum.obj
 0002:000030b8       ??_C@_0O@LGJLFMBH@Process32Next?$AA@ 100360b8     vfp2cenum.obj
 0002:000030c8       ??_C@_0P@ILGHDLOE@Process32First?$AA@ 100360c8     vfp2cenum.obj
 0002:000030d8       ??_C@_0BJ@JEFKDHMD@CreateToolhelp32Snapshot?$AA@ 100360d8     vfp2cenum.obj
 0002:000030f4       ??_C@_0P@GKMANNKL@GetMonitorInfo?$AA@ 100360f4     vfp2cenum.obj
 0002:00003104       ??_C@_0BE@OHNDFFJG@EnumDisplayMonitors?$AA@ 10036104     vfp2cenum.obj
 0002:00003118       ??_C@_0N@NKMEEJDH@EnumXWindows?$AA@ 10036118     vfp2cenum.obj
 0002:00003128       ??_C@_0N@GCACMBJF@EnumWindowsX?$AA@ 10036128     vfp2cenum.obj
 0002:00003138       ??_C@_0N@KBBEHPGG@EnumDesktops?$AA@ 10036138     vfp2cenum.obj
 0002:00003148       ??_C@_0BD@FIOCFCBE@EnumWindowStations?$AA@ 10036148     vfp2cenum.obj
 0002:0000315c       ??_C@_0N@HOKNOHPO@UnlockFileEx?$AA@ 1003615c     vfp2cfile.obj
 0002:0000316c       ??_C@_0L@EJAEKEDD@LockFileEx?$AA@ 1003616c     vfp2cfile.obj
 0002:00003178       ??_C@_0L@PBJENKDG@UnlockFile?$AA@ 10036178     vfp2cfile.obj
 0002:00003184       ??_C@_08DICMLIHC@LockFile?$AA@ 10036184     vfp2cfile.obj
 0002:00003190       ??_C@_0BB@MOGECGEP@FlushFileBuffers?$AA@ 10036190     vfp2cfile.obj
 0002:000031a4       ??_C@_0N@KGGGLBCJ@SetEndOfFile?$AA@ 100361a4     vfp2cfile.obj
 0002:000031b4       ??_C@_0P@HKHKGCLN@SetFilePointer?$AA@ 100361b4     vfp2cfile.obj
 0002:000031c4       ??_C@_0M@JHJNLFGC@CloseHandle?$AA@ 100361c4     vfp2cfile.obj
 0002:000031d0       ??_C@_0BC@BDBAKNHM@GetVolumePathName?$AA@ 100361d0     vfp2cfile.obj
 0002:000031e4       ??_C@_0L@GPLPOFDC@DeleteFile?$AA@ 100361e4     vfp2cfile.obj
 0002:000031f0       ??_C@_0BA@MNMBILBH@RemoveDirectory?$AA@ 100361f0     vfp2cfile.obj
 0002:00003200       ??_C@_0BA@HPGJDIFE@CreateDirectory?$AA@ 10036200     vfp2cfile.obj
 0002:00003210       ??_C@_0BF@NPNNHMOC@GetVolumeInformation?$AA@ 10036210     vfp2cfile.obj
 0002:00003228       ??_C@_0CA@IAICNIJN@GetVolumePathNamesForVolumeName?$AA@ 10036228     vfp2cfile.obj
 0002:00003248       ??_C@_0CB@GHFMBDGF@GetVolumePathNamesForVolumeNameA@ 10036248     vfp2cfile.obj
 0002:0000326c       ??_C@_0N@MDJJJHMB@kernel32?4dll?$AA@ 1003626c     vfp2cfile.obj
 0002:0000327c       ??_C@_06EFIGOLMA@?2?2?4?2X?3?$AA@ 1003627c     vfp2cfile.obj
 0002:00003284       ??_C@_03OPPAHFLA@X?3?2?$AA@ 10036284     vfp2cfile.obj
 0002:00003288       ??_C@_02FNAGIBCP@?4?$CK?$AA@ 10036288     vfp2cfile.obj
 0002:0000328c       ??_C@_0BE@DPOPNINL@Function?5failed?3?5?$CFI?$AA@ 1003628c     vfp2cfile.obj
 0002:000032a0       ??_C@_0L@LEKNBBIC@?$CI?$CFI?0?$CFU?0?$CFI?$CJ?$AA@ 100362a0     vfp2cfile.obj
 0002:000032ac       ??_C@_08OFALEDOO@All?$AA?$CK?4?$CK?$AA?$AA@ 100362ac     vfp2cfile.obj
 0002:000032b8       ??_C@_0L@OLGFPKPD@?$CI?$CFU?0?$CFU?0?$CFU?$CJ?$AA@ 100362b8     vfp2cfile.obj
 0002:000032c4       ??_C@_0BE@FFBFAJEL@SHGetPathFromIDList?$AA@ 100362c4     vfp2cfile.obj
 0002:000032d8       ??_C@_0BN@GJPKCKJC@Function?5failed?4?5HRESULT?3?5?$CFI?$AA@ 100362d8     vfp2cfile.obj
 0002:000032f8       ??_C@_0BD@GDOAOIJ@SHILCreateFromPath?$AA@ 100362f8     vfp2cfile.obj
 0002:0000330c       ??_C@_0BA@EPKCOLIJ@GetModuleHandle?$AA@ 1003630c     vfp2cfile.obj
 0002:0000331c       ??_C@_0BI@FMMKLHLJ@SHGetSpecialFolderPathA?$AA@ 1003631c     vfp2cfile.obj
 0002:00003334       ??_C@_04HMNMCKMH@?2?2?$DP?2?$AA@ 10036334     vfp2cfile.obj
 0002:0000333c       ??_C@_09NOIIIIGM@WriteFile?$AA@ 1003633c     vfp2cfile.obj
 0002:00003348       ??_C@_08KLCHJOKF@ReadFile?$AA@ 10036348     vfp2cfile.obj
 0002:00003354       ??_C@_08CALLHOCI@MoveFile?$AA@ 10036354     vfp2cfile.obj
 0002:00003360       ??_C@_0BI@GLMJDFC@?$CFs?$CI?$CF?$CFI64d?0?$CF?$CFI64d?0?$CF?$CF?42f?$CJ?$AA@ 10036360     vfp2cfile.obj
 0002:00003378       ??_C@_0BB@EBMHMKEA@LookupAccountSid?$AA@ 10036378     vfp2cfile.obj
 0002:0000338c       ??_C@_0BL@NGDAALJK@GetSecurityDescriptorOwner?$AA@ 1003638c     vfp2cfile.obj
 0002:000033a8       ??_C@_0BI@DOBPCBKO@GetKernelObjectSecurity?$AA@ 100363a8     vfp2cfile.obj
 0002:000033c0       ??_C@_0O@BMBIMGIE@GetFileSizeEx?$AA@ 100363c0     vfp2cfile.obj
 0002:000033d0       ??_C@_0M@LENFMBIC@SetFileTime?$AA@ 100363d0     vfp2cfile.obj
 0002:000033dc       ??_C@_0M@LLMLBHAB@GetFileTime?$AA@ 100363dc     vfp2cfile.obj
 0002:000033e8       ??_C@_0BL@JOCCKKDM@GetFileInformationByHandle?$AA@ 100363e8     vfp2cfile.obj
 0002:00003404       ??_C@_0BE@KMLPIHFA@GetFileAttributesEx?$AA@ 10036404     vfp2cfile.obj
 0002:00003418       ??_C@_0CC@EJDOLAGJ@Path?5exceeds?5MAX_PATH?5characters@ 10036418     vfp2cfile.obj
 0002:0000343c       ??_C@_0BM@HJPMEFKE@?$CI?8?$CFS?8?0?8?$CFS?8?0?$CFS?0?$CFS?0?$CFS?0?$CF0F?0?$CFU?$CJ?$AA@ 1003643c     vfp2cfile.obj
 0002:00003458       ??_C@_0GP@BEFLMFLN@filename?5C?$CI254?$CJ?0?5dosfilename?5C?$CI1@ 10036458     vfp2cfile.obj
 0002:000034c8       ??_C@_0BJ@OBPMDDBI@FindNextVolumeMountPoint?$AA@ 100364c8     vfp2cfile.obj
 0002:000034e4       ??_C@_0BK@CBAMNBBF@FindFirstVolumeMountPoint?$AA@ 100364e4     vfp2cfile.obj
 0002:00003500       ??_C@_0P@MHHMNGM@FindNextVolume?$AA@ 10036500     vfp2cfile.obj
 0002:00003510       ??_C@_0BA@NFKFPAFK@FindFirstVolume?$AA@ 10036510     vfp2cfile.obj
 0002:00003520       ??_C@_02DJGKEECL@?4?4?$AA@ 10036520     vfp2cfile.obj
 0002:00003524       ??_C@_0N@ILADKHLB@FindNextFile?$AA@ 10036524     vfp2cfile.obj
 0002:00003534       ??_C@_0O@DHMPFLDH@FindFirstFile?$AA@ 10036534     vfp2cfile.obj
 0002:00003544       ??_C@_0M@KFDNOLCO@shell32?4dll?$AA@ 10036544     vfp2cfile.obj
 0002:00003550       ??_C@_0BD@MIFLOGHI@underlinethickness?$AA@ 10036550     vfp2cfont.obj
 0002:00003564       ??_C@_0BC@PNDLLBGH@underlineposition?$AA@ 10036564     vfp2cfont.obj
 0002:00003578       ??_C@_0L@NEPAGHII@unitsperem?$AA@ 10036578     vfp2cfont.obj
 0002:00003584       ??_C@_0P@BJGMGNMP@postscriptname?$AA@ 10036584     vfp2cfont.obj
 0002:00003594       ??_C@_08BMACPLOA@fullname?$AA@ 10036594     vfp2cfont.obj
 0002:000035a0       ??_C@_0BB@PPFKHLAF@uniqueidentifier?$AA@ 100365a0     vfp2cfont.obj
 0002:000035b4       ??_C@_0O@HKLGJCMC@fontsubfamily?$AA@ 100365b4     vfp2cfont.obj
 0002:000035c4       ??_C@_0L@DDMNGGH@fontfamily?$AA@ 100365c4     vfp2cfont.obj
 0002:000035d0       ??_C@_09JHBDCMB@copyright?$AA@ 100365d0     vfp2cfont.obj
 0002:000035dc       ??_C@_07PNBIOHPA@oblique?$AA@ 100365dc     vfp2cfont.obj
 0002:000035e4       ??_C@_03HNPPOMCG@wws?$AA@  100365e4     vfp2cfont.obj
 0002:000035e8       ??_C@_0M@NKPGOJBF@typometrics?$AA@ 100365e8     vfp2cfont.obj
 0002:000035f4       ??_C@_07KMAJHHLM@regular?$AA@ 100365f4     vfp2cfont.obj
 0002:000035fc       ??_C@_04PJDGFHHN@bold?$AA@ 100365fc     vfp2cfont.obj
 0002:00003604       ??_C@_09BFNCFCKI@strikeout?$AA@ 10036604     vfp2cfont.obj
 0002:00003610       ??_C@_07PNNKHJNH@outline?$AA@ 10036610     vfp2cfont.obj
 0002:00003618       ??_C@_08JKGPMEKK@negative?$AA@ 10036618     vfp2cfont.obj
 0002:00003624       ??_C@_0L@EJMOINGP@underscore?$AA@ 10036624     vfp2cfont.obj
 0002:00003630       ??_C@_06DAHKLION@italic?$AA@ 10036630     vfp2cfont.obj
 0002:00003638       ??_C@_0O@IAIENILA@strikeoutsize?$AA@ 10036638     vfp2cfont.obj
 0002:00003648       ??_C@_0BC@MDIOHACF@strikeoutposition?$AA@ 10036648     vfp2cfont.obj
 0002:0000365c       ??_C@_04LOKOGFID@post?$AA@ 1003665c     vfp2cfont.obj
 0002:00003664       ??_C@_04NEODDMOL@head?$AA@ 10036664     vfp2cfont.obj
 0002:0000366c       ??_C@_04MEMAJGDJ@name?$AA@ 1003666c     vfp2cfont.obj
 0002:00003674       ??_C@_04OEKHDCJK@OS?12?$AA@ 10036674     vfp2cfont.obj
 0002:0000367c       ??_C@_0N@OGAMMJPI@CreateThread?$AA@ 1003667c     vfp2chelpers.obj
 0002:0000368c       ??_C@_0CG@PKBDLMEO@InitializeCriticalSectionAndSpin@ 1003668c     vfp2chelpers.obj
 0002:000036b4       ??_C@_0O@LBCJCFGA@RegSetValueEx?$AA@ 100366b4     vfp2chelpers.obj
 0002:000036c4       ??_C@_0BA@EOBNCDAH@RegQueryValueEx?$AA@ 100366c4     vfp2chelpers.obj
 0002:000036d4       ??_C@_0N@PHGFEPBC@RegEnumValue?$AA@ 100366d4     vfp2chelpers.obj
 0002:000036e4       ??_C@_0N@BGNNGLG@RegEnumKeyEx?$AA@ 100366e4     vfp2chelpers.obj
 0002:000036f4       ??_C@_0BA@PHLOHDIA@RegQueryInfoKey?$AA@ 100366f4     vfp2chelpers.obj
 0002:00003704       ??_C@_0M@EBLOFPOD@SHDeleteKey?$AA@ 10036704     vfp2chelpers.obj
 0002:00003710       ??_C@_0N@LCLJLFMB@RegDeleteKey?$AA@ 10036710     vfp2chelpers.obj
 0002:00003720       ??_C@_0P@KKPBONGB@RegCreateKeyEx?$AA@ 10036720     vfp2chelpers.obj
 0002:00003730       ??_C@_08NMMAHDIF@Standard?$AA@ 10036730     vfp2chelpers.obj
 0002:0000373c       ??_C@_0BE@HLKFLAJF@GetNativeSystemInfo?$AA@ 1003673c     vfp2chelpers.obj
 0002:00003750       ??_C@_0O@BFBCKHPD@gethostbyname?$AA@ 10036750     vfp2ciphelper.obj
 0002:00003760       ??_C@_0BA@GFEMFDFG@Host?5not?5found?4?$AA@ 10036760     vfp2ciphelper.obj
 0002:00003770       ??_C@_09JKBDEEOB@inet_addr?$AA@ 10036770     vfp2ciphelper.obj
 0002:0000377c       ??_C@_0BL@KANCHMNG@Invalid?5IP?5address?5passed?4?$AA@ 1003677c     vfp2ciphelper.obj
 0002:00003798       ??_C@_0M@MBOFDDHE@LoadLibrary?$AA@ 10036798     vfp2ciphelper.obj
 0002:000037a4       ??_C@_08BECBLMMM@icmp?4dll?$AA@ 100367a4     vfp2ciphelper.obj
 0002:000037b0       ??_C@_0N@HOEPAJNN@IcmpSendEcho?$AA@ 100367b0     vfp2ciphelper.obj
 0002:000037c0       ??_C@_0BA@CBGGGMBA@IcmpCloseHandle?$AA@ 100367c0     vfp2ciphelper.obj
 0002:000037d0       ??_C@_07DAJNJAIE@SendARP?$AA@ 100367d0     vfp2ciphelper.obj
 0002:000037d8       ??_C@_0N@BBCKHBCL@iphlpapi?4dll?$AA@ 100367d8     vfp2ciphelper.obj
 0002:000037e8       ??_C@_0P@DGOLJNLO@IcmpCreateFile?$AA@ 100367e8     vfp2ciphelper.obj
 0002:000037f8       ??_C@_08MDJKNJE@HeapWalk?$AA@ 100367f8     vfp2cmarshal.obj
 0002:00003804       ??_C@_0N@HHEDILJB@GlobalUnlock?$AA@ 10036804     vfp2cmarshal.obj
 0002:00003814       ??_C@_0L@NBONFCEK@GlobalLock?$AA@ 10036814     vfp2cmarshal.obj
 0002:00003820       ??_C@_0O@GCJFFBGM@GlobalReAlloc?$AA@ 10036820     vfp2cmarshal.obj
 0002:00003830       ??_C@_0L@KDCAJEJF@GlobalFree?$AA@ 10036830     vfp2cmarshal.obj
 0002:0000383c       ??_C@_0M@HMFMKMDM@GlobalAlloc?$AA@ 1003683c     vfp2cmarshal.obj
 0002:00003848       ??_C@_08ICEHPNNG@HeapFree?$AA@ 10036848     vfp2cmarshal.obj
 0002:00003854       ??_C@_0BI@HGBEBOF@Unknown?5exception?5code?4?$AA@ 10036854     vfp2cmarshal.obj
 0002:00003870       ??_C@_0FK@MPEEFGMG@The?5allocation?5attempt?5failed?5be@ 10036870     vfp2cmarshal.obj
 0002:000038d0       ??_C@_0FI@JFDKMODJ@The?5allocation?5attempt?5failed?5be@ 100368d0     vfp2cmarshal.obj
 0002:00003928       ??_C@_0BG@FELDKEDF@HeapAlloc?1HeapReAlloc?$AA@ 10036928     vfp2cmarshal.obj
 0002:00003940       ??_C@_0BD@GBODGBFL@HeapSetInformation?$AA@ 10036940     vfp2cmarshal.obj
 0002:00003954       ??_C@_0O@KEOJNHAK@NetServerEnum?$AA@ 10036954     vfp2cnetapi.obj
 0002:00003964       ??_C@_0M@DMNJNDNL@NetFileEnum?$AA@ 10036964     vfp2cnetapi.obj
 0002:00003970       ??_C@_0N@LODCGKBE@NetRemoteTOD?$AA@ 10036970     vfp2cnetapi.obj
 0002:00003980       ??_C@_0BB@HGFPEPHK@NetApiBufferSize?$AA@ 10036980     vfp2cnetapi.obj
 0002:00003994       ??_C@_0BH@PKKOELGL@NetApiBufferReallocate?$AA@ 10036994     vfp2cnetapi.obj
 0002:000039ac       ??_C@_0BB@EODNGDFL@NetApiBufferFree?$AA@ 100369ac     vfp2cnetapi.obj
 0002:000039c0       ??_C@_0BF@ICDIDDAD@NetApiBufferAllocate?$AA@ 100369c0     vfp2cnetapi.obj
 0002:000039d8       ??_C@_0N@GJLPLMEG@netapi32?4dll?$AA@ 100369d8     vfp2cnetapi.obj
 0002:000039e8       ??_C@_0L@HAMGPLLH@SQLGetData?$AA@ 100369e8     vfp2codbc.obj
 0002:000039f4       ??_C@_08MDDFMIOG@SQLFetch?$AA@ 100369f4     vfp2codbc.obj
 0002:00003a00       ??_C@_0N@LLGCFFJL@SQLParamData?$AA@ 10036a00     vfp2codbc.obj
 0002:00003a10       ??_C@_0L@GBGGFPEL@SQLPutData?$AA@ 10036a10     vfp2codbc.obj
 0002:00003a1c       ??_C@_0BA@PMBCDEEN@SQLSetDescField?$AA@ 10036a1c     vfp2codbc.obj
 0002:00003a2c       ??_C@_0O@KJDDLBBC@SQLSetDescRec?$AA@ 10036a2c     vfp2codbc.obj
 0002:00003a3c       ??_C@_0P@GGAJCMOO@SQLGetStmtAttr?$AA@ 10036a3c     vfp2codbc.obj
 0002:00003a4c       ??_C@_0BB@KNDFJILL@SQLBindParameter?$AA@ 10036a4c     vfp2codbc.obj
 0002:00003a60       ??_C@_0DK@NJLLKKNL@Invalid?5datatype?5conversion?5spec@ 10036a60     vfp2codbc.obj
 0002:00003a9c       ??_C@_0DF@NMJKCGAI@Parameter?5schema?5contained?5inval@ 10036a9c     vfp2codbc.obj
 0002:00003ad8       ??_C@_0EI@HGADMJIJ@Parameter?5schema?5contained?5inval@ 10036ad8     vfp2codbc.obj
 0002:00003b20       ??_C@_0EB@JFCANCCE@Parameter?5schema?5contained?5inval@ 10036b20     vfp2codbc.obj
 0002:00003b64       ??_C@_0M@HMLDGJCM@SQL_DECIMAL?$AA@ 10036b64     vfp2codbc.obj
 0002:00003b70       ??_C@_0M@PEKGGPOF@SQL_NUMERIC?$AA@ 10036b70     vfp2codbc.obj
 0002:00003b7c       ??_C@_08HGFLBDMP@SQL_REAL?$AA@ 10036b7c     vfp2codbc.obj
 0002:00003b88       ??_C@_09KICKNKPO@SQL_FLOAT?$AA@ 10036b88     vfp2codbc.obj
 0002:00003b94       ??_C@_0L@OMHIPPAD@SQL_DOUBLE?$AA@ 10036b94     vfp2codbc.obj
 0002:00003ba0       ??_C@_0N@MLDFCGHM@SQL_SMALLINT?$AA@ 10036ba0     vfp2codbc.obj
 0002:00003bb0       ??_C@_0M@ICGHIAEC@SQL_INTEGER?$AA@ 10036bb0     vfp2codbc.obj
 0002:00003bbc       ??_C@_0L@MEINJNLJ@SQL_BIGINT?$AA@ 10036bbc     vfp2codbc.obj
 0002:00003bc8       ??_C@_0ED@KOFFNAJN@Parameter?5schema?5contained?5inval@ 10036bc8     vfp2codbc.obj
 0002:00003c10       ??_C@_0EJ@HIAENHKN@Parameter?5schema?5contained?5inval@ 10036c10     vfp2codbc.obj
 0002:00003c5c       ??_C@_0O@LPKACEFI@SQL_TIMESTAMP?$AA@ 10036c5c     vfp2codbc.obj
 0002:00003c6c       ??_C@_08NNLGDMGI@SQL_DATE?$AA@ 10036c6c     vfp2codbc.obj
 0002:00003c78       ??_C@_08NPAEKPP@SQL_CHAR?$AA@ 10036c78     vfp2codbc.obj
 0002:00003c84       ??_C@_0L@KMLLPDHO@SQL_BINARY?$AA@ 10036c84     vfp2codbc.obj
 0002:00003c90       ??_C@_09CJHNADCO@SQL_WCHAR?$AA@ 10036c90     vfp2codbc.obj
 0002:00003ca0       ??_C@_0EO@PJAFAHNM@Parameter?5schema?5contained?5inval@ 10036ca0     vfp2codbc.obj
 0002:00003cf0       ??_C@_0FA@CKONILON@Parameter?5schema?5contained?5inval@ 10036cf0     vfp2codbc.obj
 0002:00003d40       ??_C@_0DP@KHHLGBLN@Parameter?5expression?5?8?$CF20S?4?4?4?8?5e@ 10036d40     vfp2codbc.obj
 0002:00003d80       ??_C@_0BP@CBKMMHOJ@CREATE?5CURSOR?5?$CFS?5FROM?5ARRAY?5?$CFS?$AA@ 10036d80     vfp2codbc.obj
 0002:00003da0       ??_C@_0EK@FOONPMDH@Variable?5list?5contained?5less?5var@ 10036da0     vfp2codbc.obj
 0002:00003df0       ??_C@_0EK@OAJKIGJ@Variable?5list?5contained?5more?5var@ 10036df0     vfp2codbc.obj
 0002:00003e3c       ??_C@_0DC@BGGNDMEE@Variable?5list?5contained?5invalid?5@ 10036e3c     vfp2codbc.obj
 0002:00003e70       ??_C@_0EH@KIECONJ@Variable?5list?5contained?5invalid?5@ 10036e70     vfp2codbc.obj
 0002:00003eb8       ??_C@_0CO@IPLDLGNH@No?5variable?5list?5specified?5for?5r@ 10036eb8     vfp2codbc.obj
 0002:00003ee8       ??_C@_0L@GCLFCMIH@RELEASE?5?$CFS?$AA@ 10036ee8     vfp2codbc.obj
 0002:00003ef4       ??_C@_0DN@FOMCBGJJ@Column?5?8?$CFS?8?5not?5contained?5in?5res@ 10036ef4     vfp2codbc.obj
 0002:00003f34       ??_C@_0BB@OJKOAMKC@AFIELDS?$CI?$CFS?0?8?$CFS?8?$CJ?$AA@ 10036f34     vfp2codbc.obj
 0002:00003f48       ??_C@_0BG@HOBMICCK@__VFP2C_ODBC_ARRAY_?$CFU?$AA@ 10036f48     vfp2codbc.obj
 0002:00003f60       ??_C@_0DB@IIMGNDMO@Cursorschema?5contained?5invalid?5d@ 10036f60     vfp2codbc.obj
 0002:00003f94       ??_C@_09EBMAHLK@NOCPTRANS?$AA@ 10036f94     vfp2codbc.obj
 0002:00003fa0       ??_C@_04HIBGFPH@NULL?$AA@  10036fa0     vfp2codbc.obj
 0002:00003fa8       ??_C@_0DN@BDIDPNEE@Invalid?5cursorschema?5for?5column?5@ 10036fa8     vfp2codbc.obj
 0002:00003fe8       ??_C@_0EB@CBKBAGPK@Invalid?5cursorschema?5for?5column?5@ 10036fe8     vfp2codbc.obj
 0002:0000402c       ??_C@_0DE@JHMGIAML@Invalid?5cursorschema?5for?5column?5@ 1003702c     vfp2codbc.obj
 0002:00004060       ??_C@_0DM@OCEHHKKJ@Invalid?5cursorschema?5for?5column?5@ 10037060     vfp2codbc.obj
 0002:0000409c       ??_C@_0DE@CPHKOHKO@Invalid?5cursorschema?5for?5column?5@ 1003709c     vfp2codbc.obj
 0002:000040d0       ??_C@_0EE@MPFKEICB@Datatype?5conversion?5for?5column?5?8@ 100370d0     vfp2codbc.obj
 0002:00004114       ??_C@_0DF@BCNOIIND@Datatype?5in?5cursorschema?5for?5col@ 10037114     vfp2codbc.obj
 0002:0000414c       ??_C@_0BL@KAODNKBL@CcVvQqWwMmNnBbFfIiYyDdTtLl?$AA@ 1003714c     vfp2codbc.obj
 0002:00004168       ??_C@_0EG@JNFBPBLJ@Column?5?8?$CFS?8?5not?5contained?5in?5res@ 10037168     vfp2codbc.obj
 0002:000041b0       ??_C@_0DB@OFCKBGA@Cursorschema?5contained?5invalid?5d@ 100371b0     vfp2codbc.obj
 0002:000041e4       ??_C@_0L@FBBEHFMA@SQLGetInfo?$AA@ 100371e4     vfp2codbc.obj
 0002:000041f0       ??_C@_0L@DDOMMEDH@SQLBindCol?$AA@ 100371f0     vfp2codbc.obj
 0002:000041fc       ??_C@_04IPHMALII@expr?$AA@ 100371fc     vfp2codbc.obj
 0002:00004204       ??_C@_06HLLFDEPA@expr?$CFI?$AA@ 10037204     vfp2codbc.obj
 0002:0000420c       ??_C@_0BA@PKPEEOIJ@SQLColAttribute?$AA@ 1003720c     vfp2codbc.obj
 0002:0000421c       ??_C@_0P@KHFKNDDF@SQLDescribeCol?$AA@ 1003721c     vfp2codbc.obj
 0002:0000422c       ??_C@_0P@LCNLGBGE@SQLAllocHandle?$AA@ 1003722c     vfp2codbc.obj
 0002:0000423c       ??_C@_0BP@JOLBHOKC@CURSORGETPROP?$CI?8MapVarchar?8?0?50?$CJ?$AA@ 1003723c     vfp2codbc.obj
 0002:0000425c       ??_C@_0L@MALJNDGC@?$CI?$CFI?0?$CFI?0?$CFI?$CJ?$AA@ 1003725c     vfp2codbc.obj
 0002:00004268       ??_C@_01PKGAHCOL@?$CJ?$AA@ 10037268     vfp2codbc.obj
 0002:0000426c       ??_C@_04IGKMPPMN@?$CI?91?0?$AA@ 1003726c     vfp2codbc.obj
 0002:00004274       ??_C@_0BF@MGBKKDDN@__VFP2C_ODBC_PARM_?$CFU?$AA@ 10037274     vfp2codbc.obj
 0002:0000428c       ??_C@_0L@FIALBHAL@SQLPrepare?$AA@ 1003728c     vfp2codbc.obj
 0002:00004298       ??_C@_0O@OLELBABC@SQLMoreResult?$AA@ 10037298     vfp2codbc.obj
 0002:000042a8       ??_C@_0M@EEBKMNNB@sqlresult?$CFI?$AA@ 100372a8     vfp2codbc.obj
 0002:000042b4       ??_C@_09KKFENAJM@sqlresult?$AA@ 100372b4     vfp2codbc.obj
 0002:000042c0       ??_C@_0M@EJIMPDMM@SQLRowCount?$AA@ 100372c0     vfp2codbc.obj
 0002:000042cc       ??_C@_0BB@ICEIFNON@SQLNumResultCols?$AA@ 100372cc     vfp2codbc.obj
 0002:000042e0       ??_C@_0O@IPNNBNGE@SQLExecDirect?$AA@ 100372e0     vfp2codbc.obj
 0002:000042f0       ??_C@_0M@KAIBCDDM@SQLFreeStmt?$AA@ 100372f0     vfp2codbc.obj
 0002:000042fc       ??_C@_0BC@ONPBOJPM@SQLSetConnectAttr?$AA@ 100372fc     vfp2codbc.obj
 0002:00004310       ??_C@_0M@KHDMIHLB@PERFDATALOG?$AA@ 10037310     vfp2codbc.obj
 0002:0000431c       ??_C@_0N@FCEBKMEB@PERFDATAFILE?$AA@ 1003731c     vfp2codbc.obj
 0002:0000432c       ??_C@_0BC@CDOPBDNA@SQLGetConnectAttr?$AA@ 1003732c     vfp2codbc.obj
 0002:00004340       ??_C@_08GLJOEOLI@PERFDATA?$AA@ 10037340     vfp2codbc.obj
 0002:0000434c       ??_C@_0P@HNKIEJPF@ISOLATIONLEVEL?$AA@ 1003734c     vfp2codbc.obj
 0002:0000435c       ??_C@_09KGBNNNJO@CONNECTED?$AA@ 1003735c     vfp2codbc.obj
 0002:00004368       ??_C@_09PKEOJLLJ@TRACEFILE?$AA@ 10037368     vfp2codbc.obj
 0002:00004374       ??_C@_05EHILDPJH@TRACE?$AA@ 10037374     vfp2codbc.obj
 0002:00004380       ??_C@_0EA@NCLCINHF@INT?$CISQLGETPROP?$CICURSORGETPROP?$CI?8Co@ 10037380     vfp2codbc.obj
 0002:000043c0       ??_C@_0BP@DCPLJDHI@INT?$CISQLGETPROP?$CI?$CFU?0?8ODBChdbc?8?$CJ?$CJ?$AA@ 100373c0     vfp2codbc.obj
 0002:000043e0       ??_C@_0L@MLICDPIB@SQLDrivers?$AA@ 100373e0     vfp2codbc.obj
 0002:000043ec       ??_C@_0P@CBEJJJHN@SQLDataSources?$AA@ 100373ec     vfp2codbc.obj
 0002:000043fc       ??_C@_04FNPKLOFD@DSN?$DN?$AA@ 100373fc     vfp2codbc.obj
 0002:00004404       ??_C@_0BE@LCNCPACH@SQLConfigDataSource?$AA@ 10037404     vfp2codbc.obj
 0002:00004418       ??_C@_09DBANNPAF@SYS?$CI3053?$CJ?$AA@ 10037418     vfp2codbc.obj
 0002:00004424       ??_C@_0CJ@DCIHHBEI@Cannot?5retrieve?5ODBC?5environment@ 10037424     vfp2codbc.obj
 0002:00004450       ??_C@_0BE@EFDMHLHM@INT?$CIVAL?$CISYS?$CI3053?$CJ?$CJ?$CJ?$AA@ 10037450     vfp2codbc.obj
 0002:00004464       ??_C@_0BD@FDDIBNGH@DeviceCapabilities?$AA@ 10037464     vfp2cprint.obj
 0002:00004478       ??_C@_09LJNOKADG@EnumForms?$AA@ 10037478     vfp2cprint.obj
 0002:00004484       ??_C@_04EBKMHHBE@Size?$AA@ 10037484     vfp2cprint.obj
 0002:0000448c       ??_C@_04OKOFBOPB@Time?$AA@ 1003748c     vfp2cprint.obj
 0002:00004494       ??_C@_0L@GLBHLBED@Notifyname?$AA@ 10037494     vfp2cprint.obj
 0002:000044a0       ??_C@_09ELECOIF@Submitted?$AA@ 100374a0     vfp2cprint.obj
 0002:000044ac       ??_C@_0N@EBABCICN@PagesPrinted?$AA@ 100374ac     vfp2cprint.obj
 0002:000044bc       ??_C@_0L@MFMIBBGL@TotalPages?$AA@ 100374bc     vfp2cprint.obj
 0002:000044c8       ??_C@_08GCJNLIKG@Position?$AA@ 100374c8     vfp2cprint.obj
 0002:000044d4       ??_C@_05BEGJLAKO@JobId?$AA@ 100374d4     vfp2cprint.obj
 0002:000044dc       ??_C@_07KCCEOEED@pStatus?$AA@ 100374dc     vfp2cprint.obj
 0002:000044e4       ??_C@_0M@BGBPPJKH@MachineName?$AA@ 100374e4     vfp2cprint.obj
 0002:000044f0       ??_C@_08KAFEAHEM@UserName?$AA@ 100374f0     vfp2cprint.obj
 0002:000044fc       ??_C@_08BGLCCPFC@Document?$AA@ 100374fc     vfp2cprint.obj
 0002:00004508       ??_C@_08HMOPGOFO@EnumJobs?$AA@ 10037508     vfp2cprint.obj
 0002:00004514       ??_C@_0M@LPAFGOO@OpenPrinter?$AA@ 10037514     vfp2cprint.obj
 0002:00004520       ??_C@_0BJ@NCCHPBOK@TransmissionRetryTimeout?$AA@ 10037520     vfp2cprint.obj
 0002:0000453c       ??_C@_0BJ@PABMOJGA@DeviceNotSelectedTimeout?$AA@ 1003753c     vfp2cprint.obj
 0002:00004558       ??_C@_0L@LOMLPDB@AveragePPM?$AA@ 10037558     vfp2cprint.obj
 0002:00004564       ??_C@_04HJKJKCE@Jobs?$AA@  10037564     vfp2cprint.obj
 0002:0000456c       ??_C@_06PGDKHFME@Status?$AA@ 1003756c     vfp2cprint.obj
 0002:00004574       ??_C@_09ENNDMPNN@UntilTime?$AA@ 10037574     vfp2cprint.obj
 0002:00004580       ??_C@_09MHCEAAPI@StartTime?$AA@ 10037580     vfp2cprint.obj
 0002:0000458c       ??_C@_0BA@DFNPIPDF@DefaultPriority?$AA@ 1003758c     vfp2cprint.obj
 0002:0000459c       ??_C@_08KGEIBGG@Priority?$AA@ 1003759c     vfp2cprint.obj
 0002:000045a8       ??_C@_0L@PLFFHFAH@Attributes?$AA@ 100375a8     vfp2cprint.obj
 0002:000045b4       ??_C@_0L@PBGCNDPG@Parameters?$AA@ 100375b4     vfp2cprint.obj
 0002:000045c0       ??_C@_08LFIGPBD@Datatype?$AA@ 100375c0     vfp2cprint.obj
 0002:000045cc       ??_C@_0P@LONNDEIK@PrintProcessor?$AA@ 100375cc     vfp2cprint.obj
 0002:000045dc       ??_C@_07FLACACPG@SepFile?$AA@ 100375dc     vfp2cprint.obj
 0002:000045e4       ??_C@_08KDOEBHGA@Location?$AA@ 100375e4     vfp2cprint.obj
 0002:000045f0       ??_C@_0L@DJBCKAGE@DriverName?$AA@ 100375f0     vfp2cprint.obj
 0002:000045fc       ??_C@_08LFPHCHDK@PortName?$AA@ 100375fc     vfp2cprint.obj
 0002:00004608       ??_C@_09KKLOMHGP@ShareName?$AA@ 10037608     vfp2cprint.obj
 0002:00004614       ??_C@_0M@CMOOBMBP@PrinterName?$AA@ 10037614     vfp2cprint.obj
 0002:00004620       ??_C@_0L@FFDIDHBB@ServerName?$AA@ 10037620     vfp2cprint.obj
 0002:0000462c       ??_C@_07JABLCLAF@Comment?$AA@ 1003762c     vfp2cprint.obj
 0002:00004634       ??_C@_04FABLJDN@Name?$AA@  10037634     vfp2cprint.obj
 0002:0000463c       ??_C@_0M@OHKMKKDH@Description?$AA@ 1003763c     vfp2cprint.obj
 0002:00004648       ??_C@_05BOOEKJH@Flags?$AA@ 10037648     vfp2cprint.obj
 0002:00004650       ??_C@_0N@NJBMDCBA@EnumPrinters?$AA@ 10037650     vfp2cprint.obj
 0002:00004660       ??_7RasNotifyThread@@6B@   10037660     vfp2cras.obj
 0002:0000466c       ??_C@_0BJ@PAENECFE@Library?5not?5initialized?4?$AA@ 1003766c     vfp2cras.obj
 0002:00004688       ??_C@_07KNEMKAEH@?$CI?$CFI?0?$CFI?$CJ?$AA@ 10037688     vfp2cras.obj
 0002:00004690       ??_C@_0BE@PLLPNLHB@RasGetConnectStatus?$AA@ 10037690     vfp2cras.obj
 0002:000046a4       ??_C@_0L@BADFDJHE@RasDialDlg?$AA@ 100376a4     vfp2cras.obj
 0002:000046b0       ??_C@_07EGKJCPKP@RasDial?$AA@ 100376b0     vfp2cras.obj
 0002:000046b8       ??_C@_0BG@GOEGGAOP@RasGetEapUserIdentity?$AA@ 100376b8     vfp2cras.obj
 0002:000046d0       ??_C@_0BG@NNCJANLJ@RasGetEntryDialParams?$AA@ 100376d0     vfp2cras.obj
 0002:000046e8       ??_C@_0BE@BMDMLIIL@?$CI?$CFU?0?$CFU?0?$CFU?0?$CFI?0?$CFU?0?$CFU?$CJ?$AA@ 100376e8     vfp2cras.obj
 0002:000046fc       ??_C@_0BA@ILCDIODO@RasPhonebookDlg?$AA@ 100376fc     vfp2cras.obj
 0002:0000470c       ??_C@_0L@GFNIKMGB@?$CI?$CFI?0?8?8?0?$CFI?$CJ?$AA@ 1003770c     vfp2cras.obj
 0002:00004718       ??_C@_0BH@MMNGOLAK@?$CI?$CFI?0ReadCString?$CI?$CFI?$CJ?00?$CJ?$AA@ 10037718     vfp2cras.obj
 0002:00004730       ??_C@_0P@KKIEBOGB@RasEnumEntries?$AA@ 10037730     vfp2cras.obj
 0002:00004740       ??_C@_0P@FBGMKNPJ@RasEnumDevices?$AA@ 10037740     vfp2cras.obj
 0002:00004750       ??_C@_0BD@DAEDPNHK@RasEnumConnections?$AA@ 10037750     vfp2cras.obj
 0002:00004764       ??_C@_0BF@NLJNCKIE@RasGetProjectionInfo?$AA@ 10037764     vfp2cras.obj
 0002:0000477c       ??_C@_0BB@CIIIEAGB@RasPhonebookDlgA?$AA@ 1003777c     vfp2cras.obj
 0002:00004790       ??_C@_0L@IKELGFJD@rasdlg?4dll?$AA@ 10037790     vfp2cras.obj
 0002:0000479c       ??_C@_0BN@OFIEKID@RasClearConnectionStatistics?$AA@ 1003779c     vfp2cras.obj
 0002:000047bc       ??_C@_0M@LOBKPOFI@RasDialDlgA?$AA@ 100377bc     vfp2cras.obj
 0002:000047c8       ??_C@_0BF@MOJLIADF@RasGetConnectStatusA?$AA@ 100377c8     vfp2cras.obj
 0002:000047e0       ??_C@_0BL@PPLICP@RasConnectionNotificationA?$AA@ 100377e0     vfp2cras.obj
 0002:000047fc       ??_C@_0BI@DLMPCBNP@RasFreeEapUserIdentityA?$AA@ 100377fc     vfp2cras.obj
 0002:00004814       ??_C@_0BH@NJLJMHMN@RasGetEapUserIdentityA?$AA@ 10037814     vfp2cras.obj
 0002:0000482c       ??_C@_0BH@FLACFMGB@RasGetEntryDialParamsA?$AA@ 1003782c     vfp2cras.obj
 0002:00004844       ??_C@_09LJKELGLC@RasHangUp?$AA@ 10037844     vfp2cras.obj
 0002:00004850       ??_C@_08KPENGJBC@RasDialA?$AA@ 10037850     vfp2cras.obj
 0002:0000485c       ??_C@_0BA@NDHNKLJE@RasEnumEntriesA?$AA@ 1003785c     vfp2cras.obj
 0002:0000486c       ??_C@_0BA@CNFCFIFB@RasEnumDevicesA?$AA@ 1003786c     vfp2cras.obj
 0002:0000487c       ??_C@_0BG@DGMKEFH@RasGetProjectionInfoA?$AA@ 1003787c     vfp2cras.obj
 0002:00004894       ??_C@_0BE@FJICKFJL@RasEnumConnectionsA?$AA@ 10037894     vfp2cras.obj
 0002:000048a8       ??_C@_0BD@DPCCDNMJ@RasGetErrorStringA?$AA@ 100378a8     vfp2cras.obj
 0002:000048bc       ??_C@_0N@GNDPINJL@rasapi32?4dll?$AA@ 100378bc     vfp2cras.obj
 0002:000048cc       ??_C@_01KICIPPFI@?2?$AA@   100378cc     vfp2cregistry.obj
 0002:000048d0       ??_C@_0M@HLOHPNFA@RegCloseKey?$AA@ 100378d0     vfp2cregistry.obj
 0002:000048dc       ??_C@_0BF@KIOMFIFH@EnumServicesStatusEx?$AA@ 100378dc     vfp2cservices.obj
 0002:000048f4       ??_C@_0BG@LDFAAI@EnumDependentServices?$AA@ 100378f4     vfp2cservices.obj
 0002:0000490c       ??_C@_0BD@LBJNPGPN@QueryServiceConfig?$AA@ 1003790c     vfp2cservices.obj
 0002:00004920       ??_C@_0BD@PMIABNOP@QueryServiceStatus?$AA@ 10037920     vfp2cservices.obj
 0002:00004934       ??_C@_0O@HIODGAKL@OpenSCManager?$AA@ 10037934     vfp2cservices.obj
 0002:00004944       ??_C@_0CN@CMODBCAP@Response?5from?5SNTP?5server?5had?5no@ 10037944     vfp2csntp.obj
 0002:00004974       ??_C@_0DF@OMCHAOP@Response?5from?5SNTP?5server?5had?5il@ 10037974     vfp2csntp.obj
 0002:000049ac       ??_C@_0DG@DHFABIGK@Response?5from?5SNTP?5server?5had?5wa@ 100379ac     vfp2csntp.obj
 0002:000049e4       ??_C@_0M@ODDJDCDK@closesocket?$AA@ 100379e4     vfp2csntp.obj
 0002:000049f0       ??_C@_04IFMDBHHF@recv?$AA@ 100379f0     vfp2csntp.obj
 0002:000049f8       ??_C@_0CC@CPMANIPN@Function?5failed?5with?5errorcode?5?$CF@ 100379f8     vfp2csntp.obj
 0002:00004a1c       ??_C@_0BH@IENIHKBJ@SNTP?5request?5time?5out?4?$AA@ 10037a1c     vfp2csntp.obj
 0002:00004a34       ??_C@_06LGNCCACI@select?$AA@ 10037a34     vfp2csntp.obj
 0002:00004a3c       ??_C@_0CH@CBHEMBOK@Function?5failed?4?5Winsock?5last?5er@ 10037a3c     vfp2csntp.obj
 0002:00004a64       ??_C@_04MIIPNNEF@send?$AA@ 10037a64     vfp2csntp.obj
 0002:00004a6c       ??_C@_0CI@DNAGMGLO@Function?5failed?4?5Winsock?5last?5er@ 10037a6c     vfp2csntp.obj
 0002:00004a94       ??_C@_07KAIBNCHO@connect?$AA@ 10037a94     vfp2csntp.obj
 0002:00004a9c       ??_C@_06HBELJPBO@socket?$AA@ 10037a9c     vfp2csntp.obj
 0002:00004aa4       ??_C@_0BH@OPPEIGDD@Winsock?5last?5error?3?5?$CFI?$AA@ 10037aa4     vfp2csntp.obj
 0002:00004abc       ??_C@_03NKEEOHDM@TZI?$AA@  10037abc     vfp2ctime.obj
 0002:00004ac0       ??_C@_03MAFDGBDP@Dlt?$AA@  10037ac0     vfp2ctime.obj
 0002:00004ac4       ??_C@_03FFGKOOIA@Std?$AA@  10037ac4     vfp2ctime.obj
 0002:00004ac8       ??_C@_07JLFIFBAE@Display?$AA@ 10037ac8     vfp2ctime.obj
 0002:00004ad0       ??_C@_0DI@LLEGOPFO@SOFTWARE?2Microsoft?2Windows?5NT?2Cu@ 10037ad0     vfp2ctime.obj
 0002:00004b08       ??_C@_0N@GCDGEIML@SetLocalTime?$AA@ 10037b08     vfp2ctime.obj
 0002:00004b18       ??_C@_0BI@DDKHAPML@LocalFileTimeToFileTime?$AA@ 10037b18     vfp2ctime.obj
 0002:00004b30       __GUID_79eac9c1_baf9_11ce_8c82_00aa004ba90b 10037b30     vfp2curlmon.obj
 0002:00004b40       ??_7UrlDownloadThread@@6B@ 10037b40     vfp2curlmon.obj
 0002:00004b4c       ??_7UrlDownload@@6B@       10037b4c     vfp2curlmon.obj
 0002:00004b78       ??_C@_0BC@NJIIDFJE@UrlDownloadToFile?$AA@ 10037b78     vfp2curlmon.obj
 0002:00004b8c       ??_C@_0BO@EBHEPGCK@STR2INT64?$CI0h0000000000000080?$CJ?$AA@ 10037b8c     vfp2cutil.obj
 0002:00004bac       ??_C@_0BB@JGGOGLEG@0123456789ABCDEF?$AA@ 10037bac     vfp2cutil.obj
 0002:00004bc0       ??_C@_0BH@MLMPCHGH@GetTimeZoneInformation?$AA@ 10037bc0     vfp2cutil.obj
 0002:00004bd8       ??_C@_09CBIHMEDI@ZAP?5IN?5?$CFS?$AA@ 10037bd8     vfp2cutil.obj
 0002:00004be4       ??_C@_0N@JFJFIAMA@SetWindowPos?$AA@ 10037be4     vfp2cwindows.obj
 0002:00004bf4       ??_C@_0BF@FKDMMOJM@SystemParametersInfo?$AA@ 10037bf4     vfp2cwindows.obj
 0002:00004c0c       ??_C@_0O@KGOHEIMB@GetWindowRect?$AA@ 10037c0c     vfp2cwindows.obj
 0002:00004c1c       ??_C@_0BD@IKEJHIPK@SendMessageTimeout?$AA@ 10037c1c     vfp2cwindows.obj
 0002:00004c30       ??_C@_0M@FIJPCJJO@gethostname?$AA@ 10037c30     vfp2cwinsock.obj
 0002:00004c3c       ??_C@_08IDCAPCCF@InetPton?$AA@ 10037c3c     vfp2cwinsock.obj
 0002:00004c48       ??_C@_0L@EANHMAHB@ws2_32?4dll?$AA@ 10037c48     vfp2cwinsock.obj
 0002:00004c54       ??_C@_0L@EEFLCHHA@WSAStartup?$AA@ 10037c54     vfp2cwinsock.obj
 0002:00004c60       ??_C@_0EB@HAEMLIPM@WSAINPROGRESS?3?5Another?5blocking?5@ 10037c60     vfp2cwinsock.obj
 0002:00004ca4       ??_C@_0BN@GCHGBIBM@WSANETDOWN?3?5Network?5is?5down?4?$AA@ 10037ca4     vfp2cwinsock.obj
 0002:00004cc4       ??_C@_0DH@OLPLLLK@WSANOTINITIALIZED?3?5Winsock?5libra@ 10037cc4     vfp2cwinsock.obj
 0002:00004d00       __real@c024000000000000    10037d00     vfp2cutil.obj
 0002:00004d08       __real@3f9eb851eb851eb8    10037d08     vfp2cutil.obj
 0002:00004d10       __real@4024000000000000    10037d10     vfp2cutil.obj
 0002:00004d18       __real@3fb999999999999a    10037d18     vfp2cutil.obj
 0002:00004d20       __real@40f5180000000000    10037d20     vfp2cutil.obj
 0002:00004d28       __real@3fe0000000000000    10037d28     vfp2csntp.obj
 0002:00004d30       __real@3e8f4000001f4000    10037d30     vfp2csntp.obj
 0002:00004d38       __real@41f0000000000000    10037d38     vfp2csntp.obj
 0002:00004d40       __real@4150624dd2e147ae    10037d40     vfp2csntp.obj
 0002:00004d48       __real@41efffffffe00000    10037d48     vfp2csntp.obj
 0002:00004d50       __real@408f400000000000    10037d50     vfp2csntp.obj
 0002:00004d58       __real@40ac200000000000    10037d58     vfp2codbc.obj
 0002:00004d60       __real@404e000000000000    10037d60     vfp2ccppapi.obj
 0002:00004d68       __real@4f800000            10037d68     vfp2casync.obj
 0002:00004d80       __real@4059000000000000    10037d80     vfp2cfile.obj
 0002:00004d88       __real@c1e0000000000000    10037d88     vfp2cconv.obj
 0002:00004d90       __real@3e800000            10037d90     vfp2casync.obj
 0002:00004d94       __real@3f400000            10037d94     vfp2casync.obj
 0002:00004d98       __real@40100000            10037d98     vfp2casync.obj
 0002:00004da0       __real@3fdf5c28f5c28f5c    10037da0     vfp2cprint.obj
 0002:00004da8       __real@4142cf5191413b8b    10037da8     vfp2ctime.obj
 0002:00004db0       __real@41429ec600000000    10037db0     vfp2ctime.obj
 0002:00004db8       __real@4000000000000000    10037db8     vfp2csntp.obj
 0002:00004dc0       ??_R1A@?0A@A@type_info@@8  10037dc0     MSVCRT:ti_inst.obj
 0002:00004dd8       ??_R2type_info@@8          10037dd8     MSVCRT:ti_inst.obj
 0002:00004de0       ??_R3type_info@@8          10037de0     MSVCRT:ti_inst.obj
 0002:00004df0       ??_R4type_info@@6B@        10037df0     MSVCRT:ti_inst.obj
 0002:00004e04       ___rtc_iaa                 10037e04     MSVCRT:initsect.obj
 0002:00004e08       ___rtc_izz                 10037e08     MSVCRT:initsect.obj
 0002:00004e0c       ___rtc_taa                 10037e0c     MSVCRT:initsect.obj
 0002:00004e10       ___rtc_tzz                 10037e10     MSVCRT:initsect.obj
 0002:00004e18       __TI1H                     10037e18     vfp2c32.obj
 0002:00004e28       __CTA1H                    10037e28     vfp2c32.obj
 0002:00004e30       __CT??_R0H@84              10037e30     vfp2c32.obj
 0002:00004e4c       __TI1?AVCAtlException@ATL@@ 10037e4c     vfp2casync.obj
 0002:00004e5c       __CTA1?AVCAtlException@ATL@@ 10037e5c     vfp2casync.obj
 0002:00004e64       __CT??_R0?AVCAtlException@ATL@@@84 10037e64     vfp2casync.obj
 0002:00004e80       __TI1J                     10037e80     vfp2ccom.obj
 0002:00004e90       __CTA1J                    10037e90     vfp2ccom.obj
 0002:00004e98       __CT??_R0J@84              10037e98     vfp2ccom.obj
 0002:00009fb8       __IMPORT_DESCRIPTOR_SHLWAPI 1003cfb8     shlwapi:SHLWAPI.dll
 0002:00009fcc       __IMPORT_DESCRIPTOR_urlmon 1003cfcc     urlmon:urlmon.dll
 0002:00009fe0       __IMPORT_DESCRIPTOR_WS2_32 1003cfe0     ws2_32:WS2_32.dll
 0002:00009ff4       __IMPORT_DESCRIPTOR_KERNEL32 1003cff4     kernel32:KERNEL32.dll
 0002:0000a008       __IMPORT_DESCRIPTOR_USER32 1003d008     user32:USER32.dll
 0002:0000a01c       __IMPORT_DESCRIPTOR_WINSPOOL 1003d01c     winspool:WINSPOOL.DRV
 0002:0000a030       __IMPORT_DESCRIPTOR_comdlg32 1003d030     comdlg32:comdlg32.dll
 0002:0000a044       __IMPORT_DESCRIPTOR_ADVAPI32 1003d044     advapi32:ADVAPI32.dll
 0002:0000a058       __IMPORT_DESCRIPTOR_SHELL32 1003d058     shell32:SHELL32.dll
 0002:0000a06c       __IMPORT_DESCRIPTOR_ole32  1003d06c     ole32:ole32.dll
 0002:0000a080       __IMPORT_DESCRIPTOR_OLEAUT32 1003d080     oleaut32:OLEAUT32.dll
 0002:0000a094       __IMPORT_DESCRIPTOR_ODBC32 1003d094     odbc32:ODBC32.dll
 0002:0000a0a8       __IMPORT_DESCRIPTOR_MSVCR71 1003d0a8     MSVCRT:MSVCR71.dll
 0002:0000a0bc       __NULL_IMPORT_DESCRIPTOR   1003d0bc     shlwapi:SHLWAPI.dll
 0003:00000000       ___xc_a                    1003f000     MSVCRT:cinitexe.obj
 0003:00000018       ___xc_z                    1003f018     MSVCRT:cinitexe.obj
 0003:0000001c       ___xi_a                    1003f01c     MSVCRT:cinitexe.obj
 0003:00000020       ___xi_z                    1003f020     MSVCRT:cinitexe.obj
 0003:00000034       ??_R0?AVtype_info@@@8      1003f034     MSVCRT:ti_inst.obj
 0003:00000050       ___security_cookie         1003f050     MSVCRT:seccook.obj
 0003:00000058       _VFP2CFuncs                1003f058     vfp2c32.obj
 0003:000010b4       __FoxTable                 100400b4     vfp2c32.obj
 0003:000010c0       _fpInetPton                100400c0     vfp2cwinsock.obj
 0003:000010c4       ??_R0H@8                   100400c4     vfp2c32.obj
 0003:000010d0       ?g_pfnGetThreadACP@ATL@@3P6GIXZA 100400d0     vfp2c32.obj
 0003:000010d4       ??_R0?AVCAtlException@ATL@@@8 100400d4     vfp2casync.obj
 0003:000010f4       ??_R0J@8                   100400f4     vfp2ccom.obj
 0003:00001104       _g_APICritSect             10040104     winapims:apicsect.obj
 0003:0000111c       ?SingleInstanceOfThisClass@@3VCApiStatic@@A 1004011c     winapims:apicsect.obj
 0003:00001124       ?_AtlBaseModule@ATL@@3VCAtlBaseModule@1@A 10040124     atls:atlbase.obj
 0003:00001168       ?m_Version@COs@@0W4WindowsVersion@@A 10040168     vfp2chelpers.obj
 0003:0000116c       _ghModule                  1004016c     vfp2c32.obj
 0003:00001170       _ghAsyncHwnd               10040170     vfp2casync.obj
 0003:00001178       ?goFindFileChangeExThread@@3PAVFindFileChangeExThread@@A 10040178     vfp2casync.obj
 0003:0000117c       ?m_FileChangeIdentity@FindFileChangeExThread@@0GA 1004017c     vfp2casync.obj
 0003:00001180       ?m_CallId@CThreadedComObject@@0JA 10040180     vfp2casynccom.obj
 0003:00001198       ?m_Version@CFoxVersion@@0HA 10040198     vfp2ccppapi.obj
 0003:0000119c       ?m_MajorVersion@CFoxVersion@@0HA 1004019c     vfp2ccppapi.obj
 0003:000011a0       ?m_MinorVersion@CFoxVersion@@0HA 100401a0     vfp2ccppapi.obj
 0003:000011b8       ?m_osver@COs@@0U_OSVERSIONINFOEXA@@A 100401b8     vfp2chelpers.obj
 0003:000012c0       ?Heap@VFP2CTls@@2PAXA      100402c0     vfp2ctls.obj
 0003:000012c4       ?RasApi32@VFP2CTls@@2PAUHINSTANCE__@@A 100402c4     vfp2ctls.obj
 0003:000012c8       ?RasDlg@VFP2CTls@@2PAUHINSTANCE__@@A 100402c8     vfp2ctls.obj
 0003:000012cc       ?IpHlpApi@VFP2CTls@@2PAUHINSTANCE__@@A 100402cc     vfp2ctls.obj
 0003:000012d0       ?Icmp@VFP2CTls@@2PAUHINSTANCE__@@A 100402d0     vfp2ctls.obj
 0003:000012d4       ?NetApi32@VFP2CTls@@2PAUHINSTANCE__@@A 100402d4     vfp2ctls.obj
 0003:000012d8       _goThreadManager           100402d8     vfp2casync.obj
 0003:00001340       ?_pAtlModule@ATL@@3PAVCAtlModule@1@A 10040340     vfp2c32.obj
 0003:00001344       ?m_bInitFailed@CAtlBaseModule@ATL@@2_NA 10040344     vfp2c32.obj
 0003:00001348       ?counts@?1??CountsPerMillisecond@PerformanceCounter@@CG_JXZ@4T_LARGE_INTEGER@@A 10040348     vfp2casynccom.obj
 0003:000036c4       _g_APITLSIndex             100426c4     <common>
 0003:000036c8       _g_APITLSRoot              100426c8     <common>
 0003:000036cc       __adjust_fdiv              100426cc     <common>
 0003:000036d0       __pRawDllMain              100426d0     <common>
 0003:000036d4       ___onexitend               100426d4     <common>
 0003:000036d8       ___onexitbegin             100426d8     <common>

 entry point at        0001:00003e72

 Static symbols

 0001:0000107f       $L135692                   1000207f f i  CIL library: CIL module
 0001:0000110f       $L139465                   1000210f f i  CIL library: CIL module
 0001:000013e6       $L139338                   100023e6 f i  CIL library: CIL module
 0001:00001484       $L139340                   10002484 f i  CIL library: CIL module
 0001:00002ec3       @APICallback@4             10003ec3 f   winapims:apimain.obj
 0001:00002f88       @_AllocObj@4               10003f88 f   winapims:apimain.obj
 0001:00002fe2       @_FreeObj@4                10003fe2 f   winapims:apimain.obj
 0001:00003021       @_AllocHandAttr@8          10004021 f   winapims:apimain.obj
 0001:00003740       _GetVersionProcs@12        10004740 f   odbccp32:dllload.obj
 0001:000037a3       _LoadProperSetupDLL@0      100047a3 f   odbccp32:dllload.obj
 0001:00003f60       _report_failure            10004f60 f   MSVCRT:secchk.obj
 0001:00004363       $L149888                   10005363 f    CIL library: CIL module
 0001:000044de       $L158353                   100054de f    CIL library: CIL module
 0001:00004524       ?cvt@@YGPADNHPAH0PADH@Z    10005524 f   vfp2cutil.obj
 0001:000069fc       $L141921                   100079fc f    CIL library: CIL module
 0001:00006d73       $L165297                   10007d73 f    CIL library: CIL module
 0001:000074ae       $L158496                   100084ae f    CIL library: CIL module
 0001:00007571       $L141982                   10008571 f    CIL library: CIL module
 0001:0000797e       $L150203                   1000897e f    CIL library: CIL module
 0001:00007c17       $L150272                   10008c17 f    CIL library: CIL module
 0001:00007ea1       $L150363                   10008ea1 f    CIL library: CIL module
 0001:0000809e       $L150466                   1000909e f    CIL library: CIL module
 0001:000081c0       $L150548                   100091c0 f    CIL library: CIL module
 0001:000083a8       $L150605                   100093a8 f    CIL library: CIL module
 0001:000084aa       $L150706                   100094aa f    CIL library: CIL module
 0001:000088a8       $L158530                   100098a8 f    CIL library: CIL module
 0001:00008c31       $L158591                   10009c31 f    CIL library: CIL module
 0001:00008f8d       $L158731                   10009f8d f    CIL library: CIL module
 0001:000090f3       $L158827                   1000a0f3 f    CIL library: CIL module
 0001:00009259       $L158907                   1000a259 f    CIL library: CIL module
 0001:000093ef       $L158989                   1000a3ef f    CIL library: CIL module
 0001:0000b664       $L142540                   1000c664 f    CIL library: CIL module
 0001:0000b969       $L142632                   1000c969 f    CIL library: CIL module
 0001:0000ba0e       $L142705                   1000ca0e f    CIL library: CIL module
 0001:0000bb1a       $L142728                   1000cb1a f    CIL library: CIL module
 0001:0000bbba       $L142758                   1000cbba f    CIL library: CIL module
 0001:0000ef7e       $L165694                   1000ff7e f    CIL library: CIL module
 0001:0000f13d       $L165751                   1001013d f    CIL library: CIL module
 0001:0000f55d       $L153430                   1001055d f    CIL library: CIL module
 0001:0000f808       $L153520                   10010808 f    CIL library: CIL module
 0001:0000fa56       $L160102                   10010a56 f    CIL library: CIL module
 0001:00010449       $L143259                   10011449 f    CIL library: CIL module
 0001:000104a6       $L143271                   100114a6 f    CIL library: CIL module
 0001:0001050a       $L143283                   1001150a f    CIL library: CIL module
 0001:00010567       $L143295                   10011567 f    CIL library: CIL module
 0001:00011601       $L160166                   10012601 f    CIL library: CIL module
 0001:000120b0       $L160512                   100130b0 f    CIL library: CIL module
 0001:000128e2       $L160872                   100138e2 f    CIL library: CIL module
 0001:000132ac       $L161399                   100142ac f    CIL library: CIL module
 0001:00013882       $L162082                   10014882 f    CIL library: CIL module
 0001:0001407b       $L162198                   1001507b f    CIL library: CIL module
 0001:000141b3       $L162277                   100151b3 f    CIL library: CIL module
 0001:00015cfd       $L153789                   10016cfd f    CIL library: CIL module
 0001:00015f7b       $L143582                   10016f7b f    CIL library: CIL module
 0001:0001606f       $L143622                   1001706f f    CIL library: CIL module
 0001:0001613c       $L143660                   1001713c f    CIL library: CIL module
 0001:00016209       $L143698                   10017209 f    CIL library: CIL module
 0001:000163a9       $L143751                   100173a9 f    CIL library: CIL module
 0001:000164a6       $L143805                   100174a6 f    CIL library: CIL module
 0001:0001659e       $L143834                   1001759e f    CIL library: CIL module
 0001:00016672       $L143870                   10017672 f    CIL library: CIL module
 0001:000167ba       $L143913                   100177ba f    CIL library: CIL module
 0001:0001687b       $L143944                   1001787b f    CIL library: CIL module
 0001:00016905       $L143976                   10017905 f    CIL library: CIL module
 0001:00016e45       $L144238                   10017e45 f    CIL library: CIL module
 0001:00016ed9       $L144316                   10017ed9 f    CIL library: CIL module
 0001:00016f6d       $L144345                   10017f6d f    CIL library: CIL module
 0001:00017084       $L144373                   10018084 f    CIL library: CIL module
 0001:00017191       $L144413                   10018191 f    CIL library: CIL module
 0001:00017274       $L144455                   10018274 f    CIL library: CIL module
 0001:00017382       $L144492                   10018382 f    CIL library: CIL module
 0001:0001749e       $L144538                   1001849e f    CIL library: CIL module
 0001:00017532       $L144585                   10018532 f    CIL library: CIL module
 0001:000179b1       $L144748                   100189b1 f    CIL library: CIL module
 0001:00017ae6       $L144797                   10018ae6 f    CIL library: CIL module
 0001:00017ba5       $L144839                   10018ba5 f    CIL library: CIL module
 0001:00017c64       $L144874                   10018c64 f    CIL library: CIL module
 0001:00017ed8       $L144912                   10018ed8 f    CIL library: CIL module
 0001:00017f6e       $L145021                   10018f6e f    CIL library: CIL module
 0001:00018002       $L145043                   10019002 f    CIL library: CIL module
 0001:00018127       $L145066                   10019127 f    CIL library: CIL module
 0001:00018410       $L154102                   10019410 f    CIL library: CIL module
 0001:0001857b       $L154145                   1001957b f    CIL library: CIL module
 0001:000186f6       $L154199                   100196f6 f    CIL library: CIL module
 0001:00018a1d       $L154331                   10019a1d f    CIL library: CIL module
 0001:00018c16       $L154398                   10019c16 f    CIL library: CIL module
 0001:00018e4c       $L154459                   10019e4c f    CIL library: CIL module
 0001:00018f91       $L154551                   10019f91 f    CIL library: CIL module
 0001:00018fe1       $L154587                   10019fe1 f    CIL library: CIL module
 0001:0001909f       $L154601                   1001a09f f    CIL library: CIL module
 0001:00019171       $L162305                   1001a171 f    CIL library: CIL module
 0001:00019224       $L162341                   1001a224 f    CIL library: CIL module
 0001:000195f6       $L162379                   1001a5f6 f    CIL library: CIL module
 0001:000199cc       $L162488                   1001a9cc f    CIL library: CIL module
 0001:00019cdf       $L162608                   1001acdf f    CIL library: CIL module
 0001:0001a011       $L162755                   1001b011 f    CIL library: CIL module
 0001:0001a273       $L162866                   1001b273 f    CIL library: CIL module
 0001:0001a514       $L162999                   1001b514 f    CIL library: CIL module
 0001:0001a6f3       $L163125                   1001b6f3 f    CIL library: CIL module
 0001:0001a9a1       $L163251                   1001b9a1 f    CIL library: CIL module
 0001:0001b093       $L163303                   1001c093 f    CIL library: CIL module
 0001:0001e320       $L146112                   1001f320 f    CIL library: CIL module
 0001:0001e432       $L146140                   1001f432 f    CIL library: CIL module
 0001:0001e617       $L146176                   1001f617 f    CIL library: CIL module
 0001:0001e6e4       $L146256                   1001f6e4 f    CIL library: CIL module
 0001:0001e796       $L146289                   1001f796 f    CIL library: CIL module
 0001:0001e91a       $L146322                   1001f91a f    CIL library: CIL module
 0001:0001e9cc       $L146392                   1001f9cc f    CIL library: CIL module
 0001:0001ec81       $L164711                   1001fc81 f    CIL library: CIL module
 0001:0001ed36       $L164832                   1001fd36 f    CIL library: CIL module
 0001:00020ff6       $L154716                   10021ff6 f    CIL library: CIL module
 0001:00021047       $L158039                   10022047 f    CIL library: CIL module
 0001:000212df       $L158069                   100222df f    CIL library: CIL module
 0001:0002143b       $L164878                   1002243b f    CIL library: CIL module
 0001:00021a69       $L140752                   10022a69 f    CIL library: CIL module
 0001:000220ad       $L140781                   100230ad f    CIL library: CIL module
 0001:00022d4d       $L165847                   10023d4d f    CIL library: CIL module
 0001:00023f9e       $L164936                   10024f9e f    CIL library: CIL module
 0001:000240b8       $L164963                   100250b8 f    CIL library: CIL module
 0001:0002412d       $L165009                   1002512d f    CIL library: CIL module
 0001:0002426d       $L165036                   1002526d f    CIL library: CIL module
 0001:0002436b       $L165068                   1002536b f    CIL library: CIL module
 0001:00024575       $L165140                   10025575 f    CIL library: CIL module
 0001:0002460a       $L165204                   1002560a f    CIL library: CIL module
 0001:00024760       $L165232                   10025760 f    CIL library: CIL module
 0001:00025c2c       $L141955                   10026c2c f    CIL library: CIL module
 0001:00026018       $L150046                   10027018 f    CIL library: CIL module
 0001:00026456       $L158446                   10027456 f    CIL library: CIL module
 0001:000264bf       $L158463                   100274bf f    CIL library: CIL module
 0001:0002672e       $L151874                   1002772e f    CIL library: CIL module
 0001:000267a2       $L151890                   100277a2 f    CIL library: CIL module
 0001:00026a68       $L151940                   10027a68 f    CIL library: CIL module
 0001:00026b64       $L151981                   10027b64 f    CIL library: CIL module
 0001:00026cc5       $L152000                   10027cc5 f    CIL library: CIL module
 0001:00026fc3       $L152059                   10027fc3 f    CIL library: CIL module
 0001:00027195       $L152127                   10028195 f    CIL library: CIL module
 0001:00027446       $L152187                   10028446 f    CIL library: CIL module
 0001:000275b1       $L159088                   100285b1 f    CIL library: CIL module
 0001:000277b4       $L159168                   100287b4 f    CIL library: CIL module
 0001:00027b03       $L165467                   10028b03 f    CIL library: CIL module
 0001:00027b86       $L165468                   10028b86 f    CIL library: CIL module
 0001:00027d03       $L145617                   10028d03 f    CIL library: CIL module
 0001:00027dba       $L145649                   10028dba f    CIL library: CIL module
 0001:00028088       $L145794                   10029088 f    CIL library: CIL module
 0001:00028105       $L145830                   10029105 f    CIL library: CIL module
 0001:00028178       $L145852                   10029178 f    CIL library: CIL module
 0001:0002821d       $L145867                   1002921d f    CIL library: CIL module
 0001:000283c4       $L145917                   100293c4 f    CIL library: CIL module
 0001:00028484       $L145935                   10029484 f    CIL library: CIL module
 0001:00028520       $L145952                   10029520 f    CIL library: CIL module
 0001:000285b7       $L145968                   100295b7 f    CIL library: CIL module
 0001:0002864e       $L145984                   1002964e f    CIL library: CIL module
 0001:000287f5       $L146007                   100297f5 f    CIL library: CIL module
 0001:00028895       $L146073                   10029895 f    CIL library: CIL module
 0001:00028a33       $L164529                   10029a33 f    CIL library: CIL module
 0001:00028bcf       $L164605                   10029bcf f    CIL library: CIL module
 0001:00028d48       $L164654                   10029d48 f    CIL library: CIL module
 0001:00028e8a       $L149802                   10029e8a f    CIL library: CIL module
 0001:00028f6c       $L149840                   10029f6c f    CIL library: CIL module
 0001:000291f4       $L158309                   1002a1f4 f    CIL library: CIL module
 0001:00029549       $L141604                   1002a549 f    CIL library: CIL module
 0001:00029757       $L141717                   1002a757 f    CIL library: CIL module
 0001:0002986a       $L141756                   1002a86a f    CIL library: CIL module
 0001:00029950       $L149921                   1002a950 f    CIL library: CIL module
 0001:00029a37       $L149955                   1002aa37 f    CIL library: CIL module
 0001:00029f48       $L151072                   1002af48 f    CIL library: CIL module
 0001:0002a293       $L151087                   1002b293 f    CIL library: CIL module
 0001:0002a6e3       $L151316                   1002b6e3 f    CIL library: CIL module
 0001:0002a9b8       $L151503                   1002b9b8 f    CIL library: CIL module
 0001:0002ad4d       $L151623                   1002bd4d f    CIL library: CIL module
 0001:0002ae29       $L151775                   1002be29 f    CIL library: CIL module
 0001:0002ae9e       $L151806                   1002be9e f    CIL library: CIL module
 0001:0002af7a       $L151837                   1002bf7a f    CIL library: CIL module
 0001:0002b383       $L165368                   1002c383 f    CIL library: CIL module
 0001:0002b3f4       $L145210                   1002c3f4 f    CIL library: CIL module
 0001:0002b604       $L163530                   1002c604 f    CIL library: CIL module
 0001:0002b78d       $L163568                   1002c78d f    CIL library: CIL module
 0001:0002b922       $L163616                   1002c922 f    CIL library: CIL module
 0001:0002ba8d       $L163685                   1002ca8d f    CIL library: CIL module
 0001:0002bb9c       $L163737                   1002cb9c f    CIL library: CIL module
 0001:0002bd1b       $L163772                   1002cd1b f    CIL library: CIL module
 0001:0002beb6       $L163821                   1002ceb6 f    CIL library: CIL module
 0001:0002c105       $L163905                   1002d105 f    CIL library: CIL module
 0001:0002c2cd       $L163999                   1002d2cd f    CIL library: CIL module
 0001:0002c520       $L164086                   1002d520 f    CIL library: CIL module
 0001:0002c703       $L164214                   1002d703 f    CIL library: CIL module
 0001:0002c7ff       $L164253                   1002d7ff f    CIL library: CIL module
 0001:0002cd34       $L164366                   1002dd34 f    CIL library: CIL module
 0001:0002cf3b       $L164411                   1002df3b f    CIL library: CIL module
 0001:0002d02f       $L164454                   1002e02f f    CIL library: CIL module
 0001:0002d111       $L164481                   1002e111 f    CIL library: CIL module
 0001:0002d2ec       $L149475                   1002e2ec f    CIL library: CIL module
 0001:0002d4bc       $L149576                   1002e4bc f    CIL library: CIL module
 0001:0002d71a       $L149673                   1002e71a f    CIL library: CIL module
 0001:0002d8fc       $L149737                   1002e8fc f    CIL library: CIL module
 0001:0002da5b       $L158265                   1002ea5b f    CIL library: CIL module
 0001:0002dc83       $L152254                   1002ec83 f    CIL library: CIL module
 0001:0002e041       $L152349                   1002f041 f    CIL library: CIL module
 0001:0002e31f       $L152520                   1002f31f f    CIL library: CIL module
 0001:0002ede8       $L152667                   1002fde8 f    CIL library: CIL module
 0001:0002f905       $L153029                   10030905 f    CIL library: CIL module
 0001:0002fd98       __ehhandler$?InitHashTable@?$CAtlMap@GPAVFindFileChangeExEntry@@V?$CElementTraits@G@ATL@@V?$CElementTraits@PAVFindFileChangeExEntry@@@3@@ATL@@QAE_NI_N@Z 10030d98 f    CIL library: CIL module
 0001:0002fda2       $L136640                   10030da2 f    CIL library: CIL module
 0001:0002fdad       __ehhandler$??1UrlDownload@@QAE@XZ 10030dad f    CIL library: CIL module
 0001:0002fdb7       $L136986                   10030db7 f    CIL library: CIL module
 0001:0002fdc2       $L136987                   10030dc2 f    CIL library: CIL module
 0001:0002fdcd       __ehhandler$??1IcmpFile@@QAE@XZ 10030dcd f    CIL library: CIL module
 0001:0002fdd7       $L137232                   10030dd7 f    CIL library: CIL module
 0001:0002fde1       __ehhandler$?Dimension@FoxCStringArray@@AAEXI@Z 10030de1 f    CIL library: CIL module
 0001:0002fdeb       $L137266                   10030deb f    CIL library: CIL module
 0001:0002fdf3       __ehhandler$??1FoxObject@@QAE@XZ 10030df3 f    CIL library: CIL module
 0001:0002fdfd       $L137318                   10030dfd f    CIL library: CIL module
 0001:0002fe05       __ehhandler$??1FoxWString@@QAE@XZ 10030e05 f    CIL library: CIL module
 0001:0002fe0f       $L137530                   10030e0f f    CIL library: CIL module
 0001:0002fe17       __ehhandler$??0FoxString@@QAE@I@Z 10030e17 f    CIL library: CIL module
 0001:0002fe21       $L137542                   10030e21 f    CIL library: CIL module
 0001:0002fe29       __ehhandler$??0FoxString@@QAE@PBD@Z 10030e29 f    CIL library: CIL module
 0001:0002fe33       $L137556                   10030e33 f    CIL library: CIL module
 0001:0002fe3b       __ehhandler$??0FoxString@@QAE@PAUParamBlk@@HW4_FoxStringInitialization@@@Z 10030e3b f    CIL library: CIL module
 0001:0002fe45       $L137571                   10030e45 f    CIL library: CIL module
 0001:0002fe4d       __ehhandler$??0FoxString@@QAE@PAUParamBlk@@HI@Z 10030e4d f    CIL library: CIL module
 0001:0002fe57       $L137587                   10030e57 f    CIL library: CIL module
 0001:0002fe5f       __ehhandler$??0FoxString@@QAE@PAUParamBlk@@H@Z 10030e5f f    CIL library: CIL module
 0001:0002fe69       $L137603                   10030e69 f    CIL library: CIL module
 0001:0002fe71       __ehhandler$??0FoxString@@QAE@AAUValue@@I@Z 10030e71 f    CIL library: CIL module
 0001:0002fe7b       $L137618                   10030e7b f    CIL library: CIL module
 0001:0002fe83       __ehhandler$??0FoxString@@QAE@AAUValue@@@Z 10030e83 f    CIL library: CIL module
 0001:0002fe8d       $L137632                   10030e8d f    CIL library: CIL module
 0001:0002fe95       __ehhandler$??0FoxString@@QAE@AAV0@@Z 10030e95 f    CIL library: CIL module
 0001:0002fe9f       $L137711                   10030e9f f    CIL library: CIL module
 0001:0002fea7       __ehhandler$??4FoxReference@@QAEAAV0@AAULocator@@@Z 10030ea7 f    CIL library: CIL module
 0001:0002feb1       $L137739                   10030eb1 f    CIL library: CIL module
 0001:0002feb9       $L137740                   10030eb9 f    CIL library: CIL module
 0001:0002fec1       __ehhandler$?GetIDispatchFromObject@@YGPAUIDispatch@@AAUValue@@@Z 10030ec1 f    CIL library: CIL module
 0001:0002fecb       $L138103                   10030ecb f    CIL library: CIL module
 0001:0002fed6       __ehhandler$??1CComCallInfo@@QAE@XZ 10030ed6 f    CIL library: CIL module
 0001:0002fee0       $L138821                   10030ee0 f    CIL library: CIL module
 0001:0002feeb       __ehhandler$??1VolumeMountPointSearch@@QAE@XZ 10030eeb f    CIL library: CIL module
 0001:0002fef5       $L138901                   10030ef5 f    CIL library: CIL module
 0001:0002fefd       __ehhandler$??0FoxObject@@QAE@PAD@Z 10030efd f    CIL library: CIL module
 0001:0002ff07       $L139511                   10030f07 f    CIL library: CIL module
 0001:0002ff12       $L139512                   10030f12 f    CIL library: CIL module
 0001:0002ff1d       $L139513                   10030f1d f    CIL library: CIL module
 0001:0002ff2a       __ehhandler$??1FindFileChangeExEntry@@QAE@XZ 10030f2a f    CIL library: CIL module
 0001:0002ff34       __ehhandler$?QueueCall@CThreadedComObject@@AAEJAAV?$CAutoPtr@VCComCallInfo@@@ATL@@@Z 10030f34 f    CIL library: CIL module
 0001:0002ff3e       $L140782                   10030f3e f    CIL library: CIL module
 0001:0002ff46       $L140783                   10030f46 f    CIL library: CIL module
 0001:0002ff4e       $L140784                   10030f4e f    CIL library: CIL module
 0001:0002ff56       $L140785                   10030f56 f    CIL library: CIL module
 0001:0002ff5e       __ehhandler$?ThreadInitialize@CThreadedComObject@@AAE_NXZ 10030f5e f    CIL library: CIL module
 0001:0002ff68       $L141093                   10030f68 f    CIL library: CIL module
 0001:0002ff70       __ehhandler$?Invoke@CThreadedComObject@@UAGJJABU_GUID@@KGPAUtagDISPPARAMS@@PAUtagVARIANT@@PAUtagEXCEPINFO@@PAI@Z 10030f70 f    CIL library: CIL module
 0001:0002ff7a       $L141605                   10030f7a f    CIL library: CIL module
 0001:0002ff85       $L141606                   10030f85 f    CIL library: CIL module
 0001:0002ff90       $L141607                   10030f90 f    CIL library: CIL module
 0001:0002ff9b       __ehhandler$@MessageBoxExLib@4 10030f9b f    CIL library: CIL module
 0001:0002ffa5       __ehhandler$@CenterWindowEx@4 10030fa5 f    CIL library: CIL module
 0001:0002ffaf       $L141757                   10030faf f    CIL library: CIL module
 0001:0002ffb7       __ehhandler$@GetWindowTextEx@4 10030fb7 f    CIL library: CIL module
 0001:0002ffc1       __ehhandler$@AbortUrlDownloadToFileEx@4 10030fc1 f    CIL library: CIL module
 0001:0002ffcb       $L141956                   10030fcb f    CIL library: CIL module
 0001:0002ffd3       __ehhandler$@SetSystemTimeLib@4 10030fd3 f    CIL library: CIL module
 0001:0002ffdd       __ehhandler$@CloseServiceHandleLib@4 10030fdd f    CIL library: CIL module
 0001:0002ffe7       $L142541                   10030fe7 f    CIL library: CIL module
 0001:0002fff2       $L142542                   10030ff2 f    CIL library: CIL module
 0001:0002fffd       $L142543                   10030ffd f    CIL library: CIL module
 0001:00030008       $L142544                   10031008 f    CIL library: CIL module
 0001:00030010       __ehhandler$@SQLSetPropEx@4 10031010 f    CIL library: CIL module
 0001:0003001a       $L142633                   1003101a f    CIL library: CIL module
 0001:00030025       $L142634                   10031025 f    CIL library: CIL module
 0001:00030030       $L142635                   10031030 f    CIL library: CIL module
 0001:0003003b       $L142636                   1003103b f    CIL library: CIL module
 0001:00030043       __ehhandler$@SQLGetPropEx@4 10031043 f    CIL library: CIL module
 0001:0003004d       $L142706                   1003104d f    CIL library: CIL module
 0001:00030055       __ehhandler$@ChangeSQLDataSource@4 10031055 f    CIL library: CIL module
 0001:0003005f       $L142729                   1003105f f    CIL library: CIL module
 0001:00030067       $L142730                   10031067 f    CIL library: CIL module
 0001:00030072       __ehhandler$@DeleteSQLDataSource@4 10031072 f    CIL library: CIL module
 0001:0003007c       $L142759                   1003107c f    CIL library: CIL module
 0001:00030084       __ehhandler$@CreateSQLDataSource@4 10031084 f    CIL library: CIL module
 0001:0003008e       __ehhandler$@WritePUInt64@4 1003108e f    CIL library: CIL module
 0001:00030098       __ehhandler$@WriteUInt64@4 10031098 f    CIL library: CIL module
 0001:000300a2       __ehhandler$@WritePInt64@4 100310a2 f    CIL library: CIL module
 0001:000300ac       __ehhandler$@WriteInt64@4  100310ac f    CIL library: CIL module
 0001:000300b6       $L143448                   100310b6 f    CIL library: CIL module
 0001:000300c1       $L143449                   100310c1 f    CIL library: CIL module
 0001:000300cc       __ehhandler$??0IcmpFile@@QAE@XZ 100310cc f    CIL library: CIL module
 0001:000300d6       __ehhandler$@FUnlockFileEx@4 100310d6 f    CIL library: CIL module
 0001:000300e0       __ehhandler$@FLockFileEx@4 100310e0 f    CIL library: CIL module
 0001:000300ea       __ehhandler$@FUnlockFile@4 100310ea f    CIL library: CIL module
 0001:000300f4       __ehhandler$@FLockFile@4   100310f4 f    CIL library: CIL module
 0001:000300fe       $L143752                   100310fe f    CIL library: CIL module
 0001:00030106       __ehhandler$@FChSizeEx@4   10031106 f    CIL library: CIL module
 0001:00030110       __ehhandler$@FEoFEx@4      10031110 f    CIL library: CIL module
 0001:0003011a       $L143835                   1003111a f    CIL library: CIL module
 0001:00030122       __ehhandler$@FSeekEx@4     10031122 f    CIL library: CIL module
 0001:0003012c       __ehhandler$@FPutsEx@4     1003112c f    CIL library: CIL module
 0001:00030136       $L143914                   10031136 f    CIL library: CIL module
 0001:0003013e       __ehhandler$@FGetsEx@4     1003113e f    CIL library: CIL module
 0001:00030148       __ehhandler$@FWriteEx@4    10031148 f    CIL library: CIL module
 0001:00030152       __ehhandler$@FReadEx@4     10031152 f    CIL library: CIL module
 0001:0003015c       $L144026                   1003115c f    CIL library: CIL module
 0001:00030164       $L144027                   10031164 f    CIL library: CIL module
 0001:0003016c       __ehhandler$_CompareFileTimesEx@8 1003116c f    CIL library: CIL module
 0001:00030176       $L144239                   10031176 f    CIL library: CIL module
 0001:00030181       $L144240                   10031181 f    CIL library: CIL module
 0001:00030189       __ehhandler$@ExpandEnvironmentStringsLib@4 10031189 f    CIL library: CIL module
 0001:00030193       $L144317                   10031193 f    CIL library: CIL module
 0001:0003019b       __ehhandler$@GetSystemDirectoryLib@4 1003119b f    CIL library: CIL module
 0001:000301a5       $L144346                   100311a5 f    CIL library: CIL module
 0001:000301ad       __ehhandler$@GetWindowsDirectoryLib@4 100311ad f    CIL library: CIL module
 0001:000301b7       $L144374                   100311b7 f    CIL library: CIL module
 0001:000301c2       $L144375                   100311c2 f    CIL library: CIL module
 0001:000301cd       __ehhandler$@SHRenameFiles@4 100311cd f    CIL library: CIL module
 0001:000301d7       $L144414                   100311d7 f    CIL library: CIL module
 0001:000301e2       $L144415                   100311e2 f    CIL library: CIL module
 0001:000301ed       __ehhandler$@SHMoveFiles@4 100311ed f    CIL library: CIL module
 0001:000301f7       $L144456                   100311f7 f    CIL library: CIL module
 0001:00030202       __ehhandler$@SHDeleteFiles@4 10031202 f    CIL library: CIL module
 0001:0003020c       $L144493                   1003120c f    CIL library: CIL module
 0001:00030217       $L144494                   10031217 f    CIL library: CIL module
 0001:00030222       __ehhandler$@SHCopyFiles@4 10031222 f    CIL library: CIL module
 0001:0003022c       $L144539                   1003122c f    CIL library: CIL module
 0001:00030234       __ehhandler$@SHSpecialFolder@4 10031234 f    CIL library: CIL module
 0001:0003023e       $L144586                   1003123e f    CIL library: CIL module
 0001:00030246       $L144587                   10031246 f    CIL library: CIL module
 0001:0003024e       __ehhandler$@CompareFileTimes@4 1003124e f    CIL library: CIL module
 0001:00030258       $L144614                   10031258 f    CIL library: CIL module
 0001:00030260       $L144615                   10031260 f    CIL library: CIL module
 0001:00030268       $L144616                   10031268 f    CIL library: CIL module
 0001:00030270       __ehhandler$_CopyFileProgress@16 10031270 f    CIL library: CIL module
 0001:0003027a       $L144749                   1003127a f    CIL library: CIL module
 0001:00030285       $L144750                   10031285 f    CIL library: CIL module
 0001:00030290       $L144751                   10031290 f    CIL library: CIL module
 0001:00030298       __ehhandler$@MoveFileExLib@4 10031298 f    CIL library: CIL module
 0001:000302a2       $L144798                   100312a2 f    CIL library: CIL module
 0001:000302aa       $L144799                   100312aa f    CIL library: CIL module
 0001:000302b5       $L144800                   100312b5 f    CIL library: CIL module
 0001:000302bd       __ehhandler$@CopyFileExLib@4 100312bd f    CIL library: CIL module
 0001:000302c7       $L144840                   100312c7 f    CIL library: CIL module
 0001:000302cf       $L144841                   100312cf f    CIL library: CIL module
 0001:000302d7       __ehhandler$@GetShortPathNameLib@4 100312d7 f    CIL library: CIL module
 0001:000302e1       $L144875                   100312e1 f    CIL library: CIL module
 0001:000302e9       $L144876                   100312e9 f    CIL library: CIL module
 0001:000302f1       __ehhandler$@GetLongPathNameLib@4 100312f1 f    CIL library: CIL module
 0001:000302fb       $L144913                   100312fb f    CIL library: CIL module
 0001:00030306       $L144914                   10031306 f    CIL library: CIL module
 0001:00030311       $L144915                   10031311 f    CIL library: CIL module
 0001:0003031c       $L144916                   1003131c f    CIL library: CIL module
 0001:00030324       $L144917                   10031324 f    CIL library: CIL module
 0001:0003032c       __ehhandler$@GetFileOwner@4 1003132c f    CIL library: CIL module
 0001:00030336       $L145022                   10031336 f    CIL library: CIL module
 0001:0003033e       __ehhandler$@SetFileAttributesLib@4 1003133e f    CIL library: CIL module
 0001:00030348       $L145044                   10031348 f    CIL library: CIL module
 0001:00030350       __ehhandler$@GetFileAttributesLib@4 10031350 f    CIL library: CIL module
 0001:0003035a       $L145067                   1003135a f    CIL library: CIL module
 0001:00030365       $L145068                   10031365 f    CIL library: CIL module
 0001:0003036d       $L145069                   1003136d f    CIL library: CIL module
 0001:00030375       __ehhandler$@GetFileSizeLib@4 10031375 f    CIL library: CIL module
 0001:0003037f       __ehhandler$@ReadProcessMemoryEx@4 1003137f f    CIL library: CIL module
 0001:00030389       $L145236                   10031389 f    CIL library: CIL module
 0001:00030391       __ehhandler$?Attach@FoxCursor@@QAEAAV1@PAD0@Z 10031391 f    CIL library: CIL module
 0001:0003039b       $L145263                   1003139b f    CIL library: CIL module
 0001:000303a3       __ehhandler$?Create@FoxCursor@@QAEAAV1@PAD0@Z 100313a3 f    CIL library: CIL module
 0001:000303ad       $L145408                   100313ad f    CIL library: CIL module
 0001:000303b5       __ehhandler$??0FoxWString@@QAE@AAVFoxString@@@Z 100313b5 f    CIL library: CIL module
 0001:000303bf       $L145435                   100313bf f    CIL library: CIL module
 0001:000303c7       __ehhandler$??0FoxWString@@QAE@PAUParamBlk@@HD@Z 100313c7 f    CIL library: CIL module
 0001:000303d1       $L145457                   100313d1 f    CIL library: CIL module
 0001:000303d9       __ehhandler$??0FoxWString@@QAE@PAUParamBlk@@H@Z 100313d9 f    CIL library: CIL module
 0001:000303e3       $L145479                   100313e3 f    CIL library: CIL module
 0001:000303eb       __ehhandler$??0FoxWString@@QAE@AAUValue@@@Z 100313eb f    CIL library: CIL module
 0001:000303f5       $L145549                   100313f5 f    CIL library: CIL module
 0001:000303fd       __ehhandler$??0FoxString@@QAE@PAUtagSAFEARRAY@@@Z 100313fd f    CIL library: CIL module
 0001:00030407       $L145575                   10031407 f    CIL library: CIL module
 0001:0003040f       __ehhandler$??0FoxString@@QAE@PA_WI@Z 1003140f f    CIL library: CIL module
 0001:00030419       __ehhandler$@UInt642Str@4  10031419 f    CIL library: CIL module
 0001:00030423       __ehhandler$@Int642Str@4   10031423 f    CIL library: CIL module
 0001:0003042d       $L145795                   1003142d f    CIL library: CIL module
 0001:00030435       __ehhandler$@GetLocaleInfoExLib@4 10031435 f    CIL library: CIL module
 0001:0003043f       $L145831                   1003143f f    CIL library: CIL module
 0001:00030447       __ehhandler$@ReleasePublicShadowObjReference@4 10031447 f    CIL library: CIL module
 0001:00030451       $L145853                   10031451 f    CIL library: CIL module
 0001:00030459       __ehhandler$@CreatePublicShadowObjReference@4 10031459 f    CIL library: CIL module
 0001:00030463       __ehhandler$@Num2Binary@4  10031463 f    CIL library: CIL module
 0001:0003046d       __ehhandler$@Int64_Mod@4   1003146d f    CIL library: CIL module
 0001:00030477       __ehhandler$@Int64_Div@4   10031477 f    CIL library: CIL module
 0001:00030481       __ehhandler$@Int64_Mul@4   10031481 f    CIL library: CIL module
 0001:0003048b       __ehhandler$@Int64_Sub@4   1003148b f    CIL library: CIL module
 0001:00030495       __ehhandler$@Int64_Add@4   10031495 f    CIL library: CIL module
 0001:0003049f       $L146008                   1003149f f    CIL library: CIL module
 0001:000304aa       __ehhandler$@GetCursorPosEx@4 100314aa f    CIL library: CIL module
 0001:000304b4       __ehhandler$@RGB2Colors@4  100314b4 f    CIL library: CIL module
 0001:000304be       $L146113                   100314be f    CIL library: CIL module
 0001:000304cb       $L146114                   100314cb f    CIL library: CIL module
 0001:000304d3       __ehhandler$@RegisterActiveObjectLib@4 100314d3 f    CIL library: CIL module
 0001:000304dd       $L146141                   100314dd f    CIL library: CIL module
 0001:000304e5       __ehhandler$@CreateGuid@4  100314e5 f    CIL library: CIL module
 0001:000304ef       $L146177                   100314ef f    CIL library: CIL module
 0001:000304fa       $L146178                   100314fa f    CIL library: CIL module
 0001:00030505       $L146179                   10031505 f    CIL library: CIL module
 0001:0003050f       __ehhandler$@IsEqualGUIDLib@4 1003150f f    CIL library: CIL module
 0001:00030519       $L146257                   10031519 f    CIL library: CIL module
 0001:00030521       $L146258                   10031521 f    CIL library: CIL module
 0001:00030529       __ehhandler$@StringFromCLSIDLib@4 10031529 f    CIL library: CIL module
 0001:00030533       $L146290                   10031533 f    CIL library: CIL module
 0001:0003053d       $L146291                   1003153d f    CIL library: CIL module
 0001:00030545       __ehhandler$@CLSIDFromStringLib@4 10031545 f    CIL library: CIL module
 0001:0003054f       $L146323                   1003154f f    CIL library: CIL module
 0001:0003055a       $L146324                   1003155a f    CIL library: CIL module
 0001:00030564       $L146325                   10031564 f    CIL library: CIL module
 0001:0003056f       $L146326                   1003156f f    CIL library: CIL module
 0001:00030577       __ehhandler$@ProgIDFromCLSIDLib@4 10031577 f    CIL library: CIL module
 0001:00030581       $L146393                   10031581 f    CIL library: CIL module
 0001:0003058b       $L146394                   1003158b f    CIL library: CIL module
 0001:00030593       __ehhandler$@CLSIDFromProgIDLib@4 10031593 f    CIL library: CIL module
 0001:0003059d       $L148658                   1003159d f    CIL library: CIL module
 0001:000305a5       $L148659                   100315a5 f    CIL library: CIL module
 0001:000305ad       $L148660                   100315ad f    CIL library: CIL module
 0001:000305b8       __ehhandler$?ProcessCalls@CThreadedComObject@@AAE_NXZ 100315b8 f    CIL library: CIL module
 0001:000305c2       $L149108                   100315c2 f    CIL library: CIL module
 0001:000305ca       $L149109                   100315ca f    CIL library: CIL module
 0001:000305d5       $L149110                   100315d5 f    CIL library: CIL module
 0001:000305e0       $L149111                   100315e0 f    CIL library: CIL module
 0001:000305ee       __ehhandler$??0FindFileChangeExThread@@QAE@AAVCThreadManager@@@Z 100315ee f    CIL library: CIL module
 0001:000305f8       $L149476                   100315f8 f    CIL library: CIL module
 0001:00030600       __ehhandler$@AMin@4        10031600 f    CIL library: CIL module
 0001:0003060a       $L149577                   1003160a f    CIL library: CIL module
 0001:00030612       __ehhandler$@AMax@4        10031612 f    CIL library: CIL module
 0001:0003061c       $L149674                   1003161c f    CIL library: CIL module
 0001:00030624       __ehhandler$@AAverage@4    10031624 f    CIL library: CIL module
 0001:0003062e       $L149738                   1003162e f    CIL library: CIL module
 0001:00030636       __ehhandler$@ASum@4        10031636 f    CIL library: CIL module
 0001:00030640       $L149803                   10031640 f    CIL library: CIL module
 0001:00030648       __ehhandler$@FormatMessageEx@4 10031648 f    CIL library: CIL module
 0001:00030652       __ehhandler$@VFP2CSys@4    10031652 f    CIL library: CIL module
 0001:0003065c       $L149889                   1003165c f    CIL library: CIL module
 0001:00030664       __ehhandler$@AIPAddresses@4 10031664 f    CIL library: CIL module
 0001:0003066e       __ehhandler$@ADesktopArea@4 1003166e f    CIL library: CIL module
 0001:00030678       __ehhandler$@GetWindowRectEx@4 10031678 f    CIL library: CIL module
 0001:00030682       $L150000                   10031682 f    CIL library: CIL module
 0001:0003068a       __ehhandler$?OnProgress@UrlDownload@@UAGJKKKPB_W@Z 1003168a f    CIL library: CIL module
 0001:00030694       $L150047                   10031694 f    CIL library: CIL module
 0001:0003069f       $L150048                   1003169f f    CIL library: CIL module
 0001:000306a7       $L150049                   100316a7 f    CIL library: CIL module
 0001:000306af       __ehhandler$@ATimeZones@4  100316af f    CIL library: CIL module
 0001:000306b9       $L150204                   100316b9 f    CIL library: CIL module
 0001:000306c4       $L150205                   100316c4 f    CIL library: CIL module
 0001:000306cf       $L150206                   100316cf f    CIL library: CIL module
 0001:000306d7       $L150207                   100316d7 f    CIL library: CIL module
 0001:000306df       $L150208                   100316df f    CIL library: CIL module
 0001:000306e7       __ehhandler$@DeleteServiceLib@4 100316e7 f    CIL library: CIL module
 0001:000306f1       $L150273                   100316f1 f    CIL library: CIL module
 0001:000306fc       $L150274                   100316fc f    CIL library: CIL module
 0001:00030707       $L150275                   10031707 f    CIL library: CIL module
 0001:00030712       $L150276                   10031712 f    CIL library: CIL module
 0001:0003071d       $L150277                   1003171d f    CIL library: CIL module
 0001:00030728       $L150278                   10031728 f    CIL library: CIL module
 0001:00030733       $L150279                   10031733 f    CIL library: CIL module
 0001:0003073e       $L150280                   1003173e f    CIL library: CIL module
 0001:00030746       $L150281                   10031746 f    CIL library: CIL module
 0001:00030751       $L150282                   10031751 f    CIL library: CIL module
 0001:00030759       __ehhandler$@CreateServiceLib@4 10031759 f    CIL library: CIL module
 0001:00030763       $L150364                   10031763 f    CIL library: CIL module
 0001:0003076e       $L150365                   1003176e f    CIL library: CIL module
 0001:00030779       $L150366                   10031779 f    CIL library: CIL module
 0001:00030784       $L150367                   10031784 f    CIL library: CIL module
 0001:0003078c       $L150368                   1003178c f    CIL library: CIL module
 0001:00030794       $L150369                   10031794 f    CIL library: CIL module
 0001:0003079c       $L150370                   1003179c f    CIL library: CIL module
 0001:000307a4       __ehhandler$@AServiceConfig@4 100317a4 f    CIL library: CIL module
 0001:000307ae       $L150467                   100317ae f    CIL library: CIL module
 0001:000307b9       $L150468                   100317b9 f    CIL library: CIL module
 0001:000307c4       $L150469                   100317c4 f    CIL library: CIL module
 0001:000307cf       $L150470                   100317cf f    CIL library: CIL module
 0001:000307d7       $L150471                   100317d7 f    CIL library: CIL module
 0001:000307df       __ehhandler$@AServiceStatus@4 100317df f    CIL library: CIL module
 0001:000307e9       $L150549                   100317e9 f    CIL library: CIL module
 0001:000307f4       $L150550                   100317f4 f    CIL library: CIL module
 0001:000307fc       $L150551                   100317fc f    CIL library: CIL module
 0001:00030807       $L150552                   10031807 f    CIL library: CIL module
 0001:0003080f       $L150553                   1003180f f    CIL library: CIL module
 0001:00030817       __ehhandler$@ControlServiceLib@4 10031817 f    CIL library: CIL module
 0001:00030821       $L150606                   10031821 f    CIL library: CIL module
 0001:0003082c       $L150607                   1003182c f    CIL library: CIL module
 0001:00030837       $L150608                   10031837 f    CIL library: CIL module
 0001:00030842       $L150609                   10031842 f    CIL library: CIL module
 0001:0003084a       $L150610                   1003184a f    CIL library: CIL module
 0001:00030852       $L150611                   10031852 f    CIL library: CIL module
 0001:0003085a       __ehhandler$@StartServiceLib@4 1003185a f    CIL library: CIL module
 0001:00030864       $L150707                   10031864 f    CIL library: CIL module
 0001:0003086f       $L150708                   1003186f f    CIL library: CIL module
 0001:00030877       $L150709                   10031877 f    CIL library: CIL module
 0001:00030882       $L150710                   10031882 f    CIL library: CIL module
 0001:0003088a       $L150711                   1003188a f    CIL library: CIL module
 0001:00030892       __ehhandler$@OpenServiceLib@4 10031892 f    CIL library: CIL module
 0001:0003089c       $L150753                   1003189c f    CIL library: CIL module
 0001:000308a4       $L150754                   100318a4 f    CIL library: CIL module
 0001:000308ac       __ehhandler$?StopDependantServices@Service@@QAEXPAUSC_HANDLE__@@@Z 100318ac f    CIL library: CIL module
 0001:000308b6       $L150819                   100318b6 f    CIL library: CIL module
 0001:000308be       $L150820                   100318be f    CIL library: CIL module
 0001:000308c9       $L150821                   100318c9 f    CIL library: CIL module
 0001:000308d1       $L150822                   100318d1 f    CIL library: CIL module
 0001:000308d9       $L150823                   100318d9 f    CIL library: CIL module
 0001:000308e1       $L150824                   100318e1 f    CIL library: CIL module
 0001:000308ec       $L150825                   100318ec f    CIL library: CIL module
 0001:000308f7       $L150826                   100318f7 f    CIL library: CIL module
 0001:00030902       $L150827                   10031902 f    CIL library: CIL module
 0001:0003090f       __ehhandler$_RegistryHiveSubroutine@12 1003190f f    CIL library: CIL module
 0001:00030919       $L151073                   10031919 f    CIL library: CIL module
 0001:00030921       $L151074                   10031921 f    CIL library: CIL module
 0001:0003092b       __ehhandler$@RegistryHiveToObject@4 1003192b f    CIL library: CIL module
 0001:00030935       $L151088                   10031935 f    CIL library: CIL module
 0001:00030940       $L151089                   10031940 f    CIL library: CIL module
 0001:0003094a       $L151090                   1003194a f    CIL library: CIL module
 0001:00030952       $L151091                   10031952 f    CIL library: CIL module
 0001:0003095d       $L151092                   1003195d f    CIL library: CIL module
 0001:00030965       $L151093                   10031965 f    CIL library: CIL module
 0001:00030970       $L151094                   10031970 f    CIL library: CIL module
 0001:0003097b       $L151095                   1003197b f    CIL library: CIL module
 0001:00030986       __ehhandler$@RegistryValuesToObject@4 10031986 f    CIL library: CIL module
 0001:00030990       $L151317                   10031990 f    CIL library: CIL module
 0001:0003099b       $L151318                   1003199b f    CIL library: CIL module
 0001:000309a3       $L151319                   100319a3 f    CIL library: CIL module
 0001:000309ae       $L151320                   100319ae f    CIL library: CIL module
 0001:000309b9       $L151321                   100319b9 f    CIL library: CIL module
 0001:000309c1       $L151322                   100319c1 f    CIL library: CIL module
 0001:000309cc       $L151323                   100319cc f    CIL library: CIL module
 0001:000309d7       __ehhandler$@ARegistryValues@4 100319d7 f    CIL library: CIL module
 0001:000309e1       $L151504                   100319e1 f    CIL library: CIL module
 0001:000309ec       $L151505                   100319ec f    CIL library: CIL module
 0001:000309f4       $L151506                   100319f4 f    CIL library: CIL module
 0001:000309ff       $L151507                   100319ff f    CIL library: CIL module
 0001:00030a0a       $L151508                   10031a0a f    CIL library: CIL module
 0001:00030a12       __ehhandler$@ARegistryKeys@4 10031a12 f    CIL library: CIL module
 0001:00030a1c       $L151624                   10031a1c f    CIL library: CIL module
 0001:00030a27       $L151625                   10031a27 f    CIL library: CIL module
 0001:00030a32       $L151626                   10031a32 f    CIL library: CIL module
 0001:00030a3d       $L151627                   10031a3d f    CIL library: CIL module
 0001:00030a48       $L151628                   10031a48 f    CIL library: CIL module
 0001:00030a50       __ehhandler$@ReadRegistryKey@4 10031a50 f    CIL library: CIL module
 0001:00030a5a       $L151776                   10031a5a f    CIL library: CIL module
 0001:00030a62       $L151777                   10031a62 f    CIL library: CIL module
 0001:00030a6a       __ehhandler$@OpenRegistryKey@4 10031a6a f    CIL library: CIL module
 0001:00030a74       __ehhandler$@DeleteRegistryKey@4 10031a74 f    CIL library: CIL module
 0001:00030a7e       $L151838                   10031a7e f    CIL library: CIL module
 0001:00030a89       $L151839                   10031a89 f    CIL library: CIL module
 0001:00030a91       $L151840                   10031a91 f    CIL library: CIL module
 0001:00030a99       __ehhandler$@CreateRegistryKey@4 10031a99 f    CIL library: CIL module
 0001:00030aa3       __ehhandler$@RasClearConnectionStatisticsEx@4 10031aa3 f    CIL library: CIL module
 0001:00030aad       __ehhandler$@AbortRasConnectionNotificationEx@4 10031aad f    CIL library: CIL module
 0001:00030ab7       $L151941                   10031ab7 f    CIL library: CIL module
 0001:00030abf       __ehhandler$@RasGetConnectStatusEx@4 10031abf f    CIL library: CIL module
 0001:00030ac9       __ehhandler$@RasHangUpEx@4 10031ac9 f    CIL library: CIL module
 0001:00030ad3       $L152001                   10031ad3 f    CIL library: CIL module
 0001:00030ade       $L152002                   10031ade f    CIL library: CIL module
 0001:00030ae9       $L152003                   10031ae9 f    CIL library: CIL module
 0001:00030af1       __ehhandler$@RasDialDlgEx@4 10031af1 f    CIL library: CIL module
 0001:00030afb       $L152060                   10031afb f    CIL library: CIL module
 0001:00030b03       $L152061                   10031b03 f    CIL library: CIL module
 0001:00030b0e       $L152062                   10031b0e f    CIL library: CIL module
 0001:00030b16       __ehhandler$@ARasPhonebookEntries@4 10031b16 f    CIL library: CIL module
 0001:00030b20       $L152128                   10031b20 f    CIL library: CIL module
 0001:00030b28       $L152129                   10031b28 f    CIL library: CIL module
 0001:00030b30       __ehhandler$@ARasDevices@4 10031b30 f    CIL library: CIL module
 0001:00030b3a       $L152188                   10031b3a f    CIL library: CIL module
 0001:00030b42       $L152189                   10031b42 f    CIL library: CIL module
 0001:00030b4a       __ehhandler$@ARasConnections@4 10031b4a f    CIL library: CIL module
 0001:00030b54       $L152255                   10031b54 f    CIL library: CIL module
 0001:00030b5f       $L152256                   10031b5f f    CIL library: CIL module
 0001:00030b67       $L152257                   10031b67 f    CIL library: CIL module
 0001:00030b72       $L152258                   10031b72 f    CIL library: CIL module
 0001:00030b7a       $L152259                   10031b7a f    CIL library: CIL module
 0001:00030b82       __ehhandler$@APrinterTrays@4 10031b82 f    CIL library: CIL module
 0001:00030b8c       $L152350                   10031b8c f    CIL library: CIL module
 0001:00030b97       $L152351                   10031b97 f    CIL library: CIL module
 0001:00030ba2       $L152352                   10031ba2 f    CIL library: CIL module
 0001:00030baa       $L152353                   10031baa f    CIL library: CIL module
 0001:00030bb5       $L152354                   10031bb5 f    CIL library: CIL module
 0001:00030bbd       $L152355                   10031bbd f    CIL library: CIL module
 0001:00030bc5       $L152356                   10031bc5 f    CIL library: CIL module
 0001:00030bcd       __ehhandler$@APaperSizes@4 10031bcd f    CIL library: CIL module
 0001:00030bd7       $L152521                   10031bd7 f    CIL library: CIL module
 0001:00030be2       $L152522                   10031be2 f    CIL library: CIL module
 0001:00030bed       $L152523                   10031bed f    CIL library: CIL module
 0001:00030bf5       $L152524                   10031bf5 f    CIL library: CIL module
 0001:00030bfd       __ehhandler$@APrinterForms@4 10031bfd f    CIL library: CIL module
 0001:00030c07       $L152668                   10031c07 f    CIL library: CIL module
 0001:00030c12       $L152669                   10031c12 f    CIL library: CIL module
 0001:00030c1d       $L152670                   10031c1d f    CIL library: CIL module
 0001:00030c28       $L152671                   10031c28 f    CIL library: CIL module
 0001:00030c32       $L152672                   10031c32 f    CIL library: CIL module
 0001:00030c3a       $L152673                   10031c3a f    CIL library: CIL module
 0001:00030c42       __ehhandler$@APrintJobs@4  10031c42 f    CIL library: CIL module
 0001:00030c4c       $L153030                   10031c4c f    CIL library: CIL module
 0001:00030c57       $L153031                   10031c57 f    CIL library: CIL module
 0001:00030c62       $L153032                   10031c62 f    CIL library: CIL module
 0001:00030c6c       $L153033                   10031c6c f    CIL library: CIL module
 0001:00030c74       __ehhandler$@APrintersEx@4 10031c74 f    CIL library: CIL module
 0001:00030c7e       $L153431                   10031c7e f    CIL library: CIL module
 0001:00030c8b       $L153432                   10031c8b f    CIL library: CIL module
 0001:00030c93       $L153433                   10031c93 f    CIL library: CIL module
 0001:00030c9e       __ehhandler$@ANetServers@4 10031c9e f    CIL library: CIL module
 0001:00030ca8       $L153521                   10031ca8 f    CIL library: CIL module
 0001:00030cb5       $L153522                   10031cb5 f    CIL library: CIL module
 0001:00030cc2       $L153523                   10031cc2 f    CIL library: CIL module
 0001:00030ccf       $L153524                   10031ccf f    CIL library: CIL module
 0001:00030cda       $L153525                   10031cda f    CIL library: CIL module
 0001:00030ce2       __ehhandler$@ANetFiles@4   10031ce2 f    CIL library: CIL module
 0001:00030cec       $L153790                   10031cec f    CIL library: CIL module
 0001:00030cf7       $L153791                   10031cf7 f    CIL library: CIL module
 0001:00030d01       $L153792                   10031d01 f    CIL library: CIL module
 0001:00030d09       $L153794                   10031d09 f    CIL library: CIL module
 0001:00030d11       $L153795                   10031d11 f    CIL library: CIL module
 0001:00030d1c       $L153796                   10031d1c f    CIL library: CIL module
 0001:00030d27       $L153797                   10031d27 f    CIL library: CIL module
 0001:00030d32       $L153798                   10031d32 f    CIL library: CIL module
 0001:00030d3d       __ehhandler$@AFontInfo@4   10031d3d f    CIL library: CIL module
 0001:00030d47       __ehhandler$@AFHandlesEx@4 10031d47 f    CIL library: CIL module
 0001:00030d51       $L154146                   10031d51 f    CIL library: CIL module
 0001:00030d5c       __ehhandler$@FOpenEx@4     10031d5c f    CIL library: CIL module
 0001:00030d66       $L154200                   10031d66 f    CIL library: CIL module
 0001:00030d71       __ehhandler$@FCreateEx@4   10031d71 f    CIL library: CIL module
 0001:00030d7b       $L154245                   10031d7b f    CIL library: CIL module
 0001:00030d86       $L154246                   10031d86 f    CIL library: CIL module
 0001:00030d8e       $L154247                   10031d8e f    CIL library: CIL module
 0001:00030d96       $L154248                   10031d96 f    CIL library: CIL module
 0001:00030d9e       __ehhandler$_DeleteDirectoryEx@4 10031d9e f    CIL library: CIL module
 0001:00030da8       $L154332                   10031da8 f    CIL library: CIL module
 0001:00030db3       $L154333                   10031db3 f    CIL library: CIL module
 0001:00030dbb       $L154334                   10031dbb f    CIL library: CIL module
 0001:00030dc6       $L154335                   10031dc6 f    CIL library: CIL module
 0001:00030dce       __ehhandler$@AVolumeInformation@4 10031dce f    CIL library: CIL module
 0001:00030dd8       $L154399                   10031dd8 f    CIL library: CIL module
 0001:00030de3       $L154400                   10031de3 f    CIL library: CIL module
 0001:00030deb       $L154401                   10031deb f    CIL library: CIL module
 0001:00030df6       __ehhandler$@AVolumePaths@4 10031df6 f    CIL library: CIL module
 0001:00030e00       $L154460                   10031e00 f    CIL library: CIL module
 0001:00030e0b       $L154461                   10031e0b f    CIL library: CIL module
 0001:00030e13       __ehhandler$@ADriveInfo@4  10031e13 f    CIL library: CIL module
 0001:00030e1d       $L154552                   10031e1d f    CIL library: CIL module
 0001:00030e25       __ehhandler$_SHBrowseCallback@16 10031e25 f    CIL library: CIL module
 0001:00030e2f       $L154588                   10031e2f f    CIL library: CIL module
 0001:00030e37       __ehhandler$@DeleteDirectory@4 10031e37 f    CIL library: CIL module
 0001:00030e41       $L154602                   10031e41 f    CIL library: CIL module
 0001:00030e49       $L154603                   10031e49 f    CIL library: CIL module
 0001:00030e53       __ehhandler$@DeleteFileEx@4 10031e53 f    CIL library: CIL module
 0001:00030e5d       $L154637                   10031e5d f    CIL library: CIL module
 0001:00030e65       __ehhandler$_WindowEnumCallbackCall@8 10031e65 f    CIL library: CIL module
 0001:00030e6f       $L154717                   10031e6f f    CIL library: CIL module
 0001:00030e7a       $L154718                   10031e7a f    CIL library: CIL module
 0001:00030e85       $L154719                   10031e85 f    CIL library: CIL module
 0001:00030e90       __ehhandler$@CreateCallbackFunc@4 10031e90 f    CIL library: CIL module
 0001:00030e9a       __ehhandler$?ReleaseWindowSubclasses@@YGXXZ 10031e9a f    CIL library: CIL module
 0001:00030ea4       $L158070                   10031ea4 f    CIL library: CIL module
 0001:00030eac       $L158071                   10031eac f    CIL library: CIL module
 0001:00030eb7       __ehhandler$@BindEventsEx@4 10031eb7 f    CIL library: CIL module
 0001:00030ec1       $L158266                   10031ec1 f    CIL library: CIL module
 0001:00030ec9       $L158267                   10031ec9 f    CIL library: CIL module
 0001:00030ed4       __ehhandler$@ASplitStr@4   10031ed4 f    CIL library: CIL module
 0001:00030ede       $L158310                   10031ede f    CIL library: CIL module
 0001:00030ee9       $L158311                   10031ee9 f    CIL library: CIL module
 0001:00030ef1       __ehhandler$@AErrorEx@4    10031ef1 f    CIL library: CIL module
 0001:00030efb       $L158354                   10031efb f    CIL library: CIL module
 0001:00030f06       $L158355                   10031f06 f    CIL library: CIL module
 0001:00030f0e       __ehhandler$@ResolveHostToIp@4 10031f0e f    CIL library: CIL module
 0001:00030f18       __ehhandler$@ST2DT@4       10031f18 f    CIL library: CIL module
 0001:00030f22       __ehhandler$@FT2DT@4       10031f22 f    CIL library: CIL module
 0001:00030f2c       $L158497                   10031f2c f    CIL library: CIL module
 0001:00030f37       __ehhandler$@SyncToSNTPServer@4 10031f37 f    CIL library: CIL module
 0001:00030f41       $L158531                   10031f41 f    CIL library: CIL module
 0001:00030f4c       $L158532                   10031f4c f    CIL library: CIL module
 0001:00030f54       $L158533                   10031f54 f    CIL library: CIL module
 0001:00030f5f       $L158534                   10031f5f f    CIL library: CIL module
 0001:00030f67       $L158535                   10031f67 f    CIL library: CIL module
 0001:00030f6f       __ehhandler$@WaitForServiceStatus@4 10031f6f f    CIL library: CIL module
 0001:00030f79       $L158592                   10031f79 f    CIL library: CIL module
 0001:00030f84       $L158593                   10031f84 f    CIL library: CIL module
 0001:00030f8f       $L158594                   10031f8f f    CIL library: CIL module
 0001:00030f9a       $L158595                   10031f9a f    CIL library: CIL module
 0001:00030fa5       $L158596                   10031fa5 f    CIL library: CIL module
 0001:00030fad       $L158597                   10031fad f    CIL library: CIL module
 0001:00030fb5       $L158598                   10031fb5 f    CIL library: CIL module
 0001:00030fbd       __ehhandler$@ADependentServices@4 10031fbd f    CIL library: CIL module
 0001:00030fc7       $L158732                   10031fc7 f    CIL library: CIL module
 0001:00030fd2       $L158733                   10031fd2 f    CIL library: CIL module
 0001:00030fdd       $L158734                   10031fdd f    CIL library: CIL module
 0001:00030fe8       $L158735                   10031fe8 f    CIL library: CIL module
 0001:00030ff0       $L158736                   10031ff0 f    CIL library: CIL module
 0001:00030ff8       __ehhandler$@AServices@4   10031ff8 f    CIL library: CIL module
 0001:00031002       $L158828                   10032002 f    CIL library: CIL module
 0001:0003100d       $L158829                   1003200d f    CIL library: CIL module
 0001:00031018       $L158830                   10032018 f    CIL library: CIL module
 0001:00031020       $L158831                   10032020 f    CIL library: CIL module
 0001:00031028       $L158832                   10032028 f    CIL library: CIL module
 0001:00031030       __ehhandler$@ContinueService@4 10032030 f    CIL library: CIL module
 0001:0003103a       $L158908                   1003203a f    CIL library: CIL module
 0001:00031045       $L158909                   10032045 f    CIL library: CIL module
 0001:00031050       $L158910                   10032050 f    CIL library: CIL module
 0001:00031058       $L158911                   10032058 f    CIL library: CIL module
 0001:00031060       $L158912                   10032060 f    CIL library: CIL module
 0001:00031068       __ehhandler$@PauseService@4 10032068 f    CIL library: CIL module
 0001:00031072       $L158990                   10032072 f    CIL library: CIL module
 0001:0003107d       $L158991                   1003207d f    CIL library: CIL module
 0001:00031088       $L158992                   10032088 f    CIL library: CIL module
 0001:00031090       $L158993                   10032090 f    CIL library: CIL module
 0001:00031098       $L158994                   10032098 f    CIL library: CIL module
 0001:000310a0       __ehhandler$@StopServiceLib@4 100320a0 f    CIL library: CIL module
 0001:000310aa       $L159089                   100320aa f    CIL library: CIL module
 0001:000310b2       __ehhandler$@RasConnectionNotificationEx@4 100320b2 f    CIL library: CIL module
 0001:000310bc       $L159169                   100320bc f    CIL library: CIL module
 0001:000310c7       $L159170                   100320c7 f    CIL library: CIL module
 0001:000310d2       $L159171                   100320d2 f    CIL library: CIL module
 0001:000310da       __ehhandler$@RasPhonebookDlgEx@4 100320da f    CIL library: CIL module
 0001:000310e4       $L160103                   100320e4 f    CIL library: CIL module
 0001:000310ee       $L160104                   100320ee f    CIL library: CIL module
 0001:000310f6       $L160105                   100320f6 f    CIL library: CIL module
 0001:000310fe       __ehhandler$@GetServerTime@4 100320fe f    CIL library: CIL module
 0001:00031108       $L160167                   10032108 f    CIL library: CIL module
 0001:00031113       $L160168                   10032113 f    CIL library: CIL module
 0001:0003111b       $L160169                   1003211b f    CIL library: CIL module
 0001:00031123       $L160170                   10032123 f    CIL library: CIL module
 0001:0003112b       $L160171                   1003212b f    CIL library: CIL module
 0001:00031133       $L160172                   10032133 f    CIL library: CIL module
 0001:0003113b       $L160173                   1003213b f    CIL library: CIL module
 0001:00031143       $L160174                   10032143 f    CIL library: CIL module
 0001:0003114b       $L160175                   1003214b f    CIL library: CIL module
 0001:00031153       $L160176                   10032153 f    CIL library: CIL module
 0001:0003115e       $L160177                   1003215e f    CIL library: CIL module
 0001:00031166       $L160178                   10032166 f    CIL library: CIL module
 0001:00031171       $L160179                   10032171 f    CIL library: CIL module
 0001:00031179       $L160180                   10032179 f    CIL library: CIL module
 0001:00031184       $L160181                   10032184 f    CIL library: CIL module
 0001:0003118f       $L160182                   1003218f f    CIL library: CIL module
 0001:00031197       $L160183                   10032197 f    CIL library: CIL module
 0001:0003119f       __ehhandler$@MarshalCArray2Cursor@4 1003219f f    CIL library: CIL module
 0001:000311a9       $L160513                   100321a9 f    CIL library: CIL module
 0001:000311b1       $L160514                   100321b1 f    CIL library: CIL module
 0001:000311bc       $L160515                   100321bc f    CIL library: CIL module
 0001:000311c4       __ehhandler$@MarshalCursor2CArray@4 100321c4 f    CIL library: CIL module
 0001:000311ce       $L160873                   100321ce f    CIL library: CIL module
 0001:000311d6       $L160874                   100321d6 f    CIL library: CIL module
 0001:000311de       $L160875                   100321de f    CIL library: CIL module
 0001:000311e6       $L160876                   100321e6 f    CIL library: CIL module
 0001:000311ee       $L160877                   100321ee f    CIL library: CIL module
 0001:000311f6       $L160878                   100321f6 f    CIL library: CIL module
 0001:000311fe       $L160879                   100321fe f    CIL library: CIL module
 0001:00031206       $L160880                   10032206 f    CIL library: CIL module
 0001:00031211       $L160881                   10032211 f    CIL library: CIL module
 0001:00031219       $L160882                   10032219 f    CIL library: CIL module
 0001:00031224       $L160883                   10032224 f    CIL library: CIL module
 0001:0003122c       $L160884                   1003222c f    CIL library: CIL module
 0001:00031237       $L160885                   10032237 f    CIL library: CIL module
 0001:00031242       $L160886                   10032242 f    CIL library: CIL module
 0001:0003124a       $L160887                   1003224a f    CIL library: CIL module
 0001:00031252       __ehhandler$@MarshalCArray2FoxArray@4 10032252 f    CIL library: CIL module
 0001:0003125c       $L161400                   1003225c f    CIL library: CIL module
 0001:00031264       __ehhandler$@MarshalFoxArray2CArray@4 10032264 f    CIL library: CIL module
 0001:0003126e       __ehhandler$@AMemBlocks@4  1003226e f    CIL library: CIL module
 0001:00031278       $L162199                   10032278 f    CIL library: CIL module
 0001:00031283       $L162200                   10032283 f    CIL library: CIL module
 0001:0003128e       $L162201                   1003228e f    CIL library: CIL module
 0001:00031298       __ehhandler$@IcmpPing@4    10032298 f    CIL library: CIL module
 0001:000312a2       $L162278                   100322a2 f    CIL library: CIL module
 0001:000312ad       $L162279                   100322ad f    CIL library: CIL module
 0001:000312b5       __ehhandler$@Ip2MacAddress@4 100322b5 f    CIL library: CIL module
 0001:000312bf       $L162306                   100322bf f    CIL library: CIL module
 0001:000312ca       $L162307                   100322ca f    CIL library: CIL module
 0001:000312d4       __ehhandler$@AVolumeMountPoints@4 100322d4 f    CIL library: CIL module
 0001:000312de       $L162342                   100322de f    CIL library: CIL module
 0001:000312e6       __ehhandler$@AVolumes@4    100322e6 f    CIL library: CIL module
 0001:000312f0       $L162380                   100322f0 f    CIL library: CIL module
 0001:000312fb       $L162381                   100322fb f    CIL library: CIL module
 0001:00031306       $L162382                   10032306 f    CIL library: CIL module
 0001:00031311       $L162383                   10032311 f    CIL library: CIL module
 0001:0003131c       $L162384                   1003231c f    CIL library: CIL module
 0001:00031327       $L162385                   10032327 f    CIL library: CIL module
 0001:00031332       $L162386                   10032332 f    CIL library: CIL module
 0001:0003133d       $L162387                   1003233d f    CIL library: CIL module
 0001:00031348       __ehhandler$@GetSaveFileNameLib@4 10032348 f    CIL library: CIL module
 0001:00031352       $L162489                   10032352 f    CIL library: CIL module
 0001:0003135d       $L162490                   1003235d f    CIL library: CIL module
 0001:00031368       $L162491                   10032368 f    CIL library: CIL module
 0001:00031373       $L162492                   10032373 f    CIL library: CIL module
 0001:0003137e       $L162493                   1003237e f    CIL library: CIL module
 0001:00031389       $L162494                   10032389 f    CIL library: CIL module
 0001:00031394       $L162495                   10032394 f    CIL library: CIL module
 0001:0003139f       __ehhandler$@GetOpenFileNameLib@4 1003239f f    CIL library: CIL module
 0001:000313a9       $L162609                   100323a9 f    CIL library: CIL module
 0001:000313b4       $L162610                   100323b4 f    CIL library: CIL module
 0001:000313c1       $L162611                   100323c1 f    CIL library: CIL module
 0001:000313cc       $L162612                   100323cc f    CIL library: CIL module
 0001:000313d7       $L162613                   100323d7 f    CIL library: CIL module
 0001:000313df       $L162614                   100323df f    CIL library: CIL module
 0001:000313e7       __ehhandler$@SHBrowseFolder@4 100323e7 f    CIL library: CIL module
 0001:000313f1       $L162756                   100323f1 f    CIL library: CIL module
 0001:000313fc       $L162757                   100323fc f    CIL library: CIL module
 0001:00031404       $L162758                   10032404 f    CIL library: CIL module
 0001:0003140c       __ehhandler$@SetFileTimes@4 1003240c f    CIL library: CIL module
 0001:00031416       $L162867                   10032416 f    CIL library: CIL module
 0001:00031421       $L162868                   10032421 f    CIL library: CIL module
 0001:00031429       $L162869                   10032429 f    CIL library: CIL module
 0001:00031431       __ehhandler$@GetFileTimes@4 10032431 f    CIL library: CIL module
 0001:0003143b       $L163000                   1003243b f    CIL library: CIL module
 0001:00031446       $L163001                   10032446 f    CIL library: CIL module
 0001:0003144e       $L163002                   1003244e f    CIL library: CIL module
 0001:00031456       $L163003                   10032456 f    CIL library: CIL module
 0001:0003145e       __ehhandler$@AFileAttributesEx@4 1003245e f    CIL library: CIL module
 0001:00031468       $L163126                   10032468 f    CIL library: CIL module
 0001:00031473       $L163127                   10032473 f    CIL library: CIL module
 0001:0003147b       $L163128                   1003247b f    CIL library: CIL module
 0001:00031483       __ehhandler$@AFileAttributes@4 10032483 f    CIL library: CIL module
 0001:0003148d       $L163207                   1003248d f    CIL library: CIL module
 0001:00031498       __ehhandler$_ADirectoryInfoSubRoutine@8 10032498 f    CIL library: CIL module
 0001:000314a2       $L163252                   100324a2 f    CIL library: CIL module
 0001:000314ad       $L163253                   100324ad f    CIL library: CIL module
 0001:000314b5       __ehhandler$@ADirectoryInfo@4 100324b5 f    CIL library: CIL module
 0001:000314bf       $L163304                   100324bf f    CIL library: CIL module
 0001:000314ca       $L163305                   100324ca f    CIL library: CIL module
 0001:000314d5       $L163306                   100324d5 f    CIL library: CIL module
 0001:000314e0       $L163307                   100324e0 f    CIL library: CIL module
 0001:000314e8       $L163308                   100324e8 f    CIL library: CIL module
 0001:000314f0       $L163309                   100324f0 f    CIL library: CIL module
 0001:000314fb       $L163310                   100324fb f    CIL library: CIL module
 0001:00031506       $L163311                   10032506 f    CIL library: CIL module
 0001:00031511       __ehhandler$@ADirEx@4      10032511 f    CIL library: CIL module
 0001:0003151b       $L163531                   1003251b f    CIL library: CIL module
 0001:00031526       $L163532                   10032526 f    CIL library: CIL module
 0001:0003152e       __ehhandler$@ADisplayDevices@4 1003252e f    CIL library: CIL module
 0001:00031538       $L163569                   10032538 f    CIL library: CIL module
 0001:00031543       __ehhandler$@AResolutions@4 10032543 f    CIL library: CIL module
 0001:0003154d       $L163617                   1003254d f    CIL library: CIL module
 0001:00031558       $L163618                   10032558 f    CIL library: CIL module
 0001:00031560       $L163619                   10032560 f    CIL library: CIL module
 0001:0003156b       __ehhandler$@AResourceLanguages@4 1003256b f    CIL library: CIL module
 0001:00031575       $L163686                   10032575 f    CIL library: CIL module
 0001:00031580       $L163687                   10032580 f    CIL library: CIL module
 0001:00031588       __ehhandler$@AResourceNames@4 10032588 f    CIL library: CIL module
 0001:00031592       $L163738                   10032592 f    CIL library: CIL module
 0001:0003159d       __ehhandler$@AResourceTypes@4 1003259d f    CIL library: CIL module
 0001:000315a7       __ehhandler$@AHeapBlocks@4 100325a7 f    CIL library: CIL module
 0001:000315b1       $L163822                   100325b1 f    CIL library: CIL module
 0001:000315b9       __ehhandler$@AProcessHeaps@4 100325b9 f    CIL library: CIL module
 0001:000315c3       $L163906                   100325c3 f    CIL library: CIL module
 0001:000315ce       $L163907                   100325ce f    CIL library: CIL module
 0001:000315d6       __ehhandler$@AProcessModules@4 100325d6 f    CIL library: CIL module
 0001:000315e0       $L164000                   100325e0 f    CIL library: CIL module
 0001:000315e8       __ehhandler$@AProcessThreads@4 100325e8 f    CIL library: CIL module
 0001:000315f2       $L164087                   100325f2 f    CIL library: CIL module
 0001:000315fa       $L164088                   100325fa f    CIL library: CIL module
 0001:00031605       __ehhandler$@AProcesses@4  10032605 f    CIL library: CIL module
 0001:0003160f       __ehhandler$@AMonitors@4   1003260f f    CIL library: CIL module
 0001:00031619       $L164254                   10032619 f    CIL library: CIL module
 0001:00031624       __ehhandler$@AWindowProps@4 10032624 f    CIL library: CIL module
 0001:0003162e       $L164367                   1003262e f    CIL library: CIL module
 0001:00031636       $L164368                   10032636 f    CIL library: CIL module
 0001:00031641       __ehhandler$@AWindowsEx@4  10032641 f    CIL library: CIL module
 0001:0003164b       $L164412                   1003264b f    CIL library: CIL module
 0001:00031653       __ehhandler$@AWindows@4    10032653 f    CIL library: CIL module
 0001:0003165d       $L164455                   1003265d f    CIL library: CIL module
 0001:00031668       __ehhandler$@ADesktops@4   10032668 f    CIL library: CIL module
 0001:00031672       $L164482                   10032672 f    CIL library: CIL module
 0001:0003167d       __ehhandler$@AWindowStations@4 1003267d f    CIL library: CIL module
 0001:00031687       $L164530                   10032687 f    CIL library: CIL module
 0001:0003168f       $L164531                   1003268f f    CIL library: CIL module
 0001:00031697       $L164532                   10032697 f    CIL library: CIL module
 0001:000316a2       __ehhandler$@Variant2Value@4 100326a2 f    CIL library: CIL module
 0001:000316ac       $L164606                   100326ac f    CIL library: CIL module
 0001:000316b7       $L164607                   100326b7 f    CIL library: CIL module
 0001:000316bf       $L164608                   100326bf f    CIL library: CIL module
 0001:000316c7       __ehhandler$@PG_Str2ByteA@4 100326c7 f    CIL library: CIL module
 0001:000316d1       $L164655                   100326d1 f    CIL library: CIL module
 0001:000316dc       $L164656                   100326dc f    CIL library: CIL module
 0001:000316e4       $L164657                   100326e4 f    CIL library: CIL module
 0001:000316ec       __ehhandler$@PG_ByteA2Str@4 100326ec f    CIL library: CIL module
 0001:000316f6       $L164712                   100326f6 f    CIL library: CIL module
 0001:00031703       $L164713                   10032703 f    CIL library: CIL module
 0001:00031710       $L164714                   10032710 f    CIL library: CIL module
 0001:00031718       $L164715                   10032718 f    CIL library: CIL module
 0001:00031720       $L164716                   10032720 f    CIL library: CIL module
 0001:00031728       $L164717                   10032728 f    CIL library: CIL module
 0001:00031730       __ehhandler$@RegisterObjectAsFileMoniker@4 10032730 f    CIL library: CIL module
 0001:0003173a       $L164833                   1003273a f    CIL library: CIL module
 0001:00031742       $L164834                   10032742 f    CIL library: CIL module
 0001:0003174a       __ehhandler$_VFP2C_Init_Com@0 1003274a f    CIL library: CIL module
 0001:00031754       __ehhandler$@UnbindEventsEx@4 10032754 f    CIL library: CIL module
 0001:0003175e       __ehhandler$@CancelWaitForObject@4 1003275e f    CIL library: CIL module
 0001:00031768       $L164964                   10032768 f    CIL library: CIL module
 0001:00031770       __ehhandler$@AsyncWaitForObject@4 10032770 f    CIL library: CIL module
 0001:0003177a       __ehhandler$@CancelRegistryChange@4 1003277a f    CIL library: CIL module
 0001:00031784       $L165037                   10032784 f    CIL library: CIL module
 0001:0003178f       $L165038                   1003278f f    CIL library: CIL module
 0001:00031797       __ehhandler$@FindRegistryChange@4 10032797 f    CIL library: CIL module
 0001:000317a1       $L165069                   100327a1 f    CIL library: CIL module
 0001:000317a9       __ehhandler$@CancelFileChangeEx@4 100327a9 f    CIL library: CIL module
 0001:000317b3       $L165141                   100327b3 f    CIL library: CIL module
 0001:000317bb       $L165142                   100327bb f    CIL library: CIL module
 0001:000317c6       $L165143                   100327c6 f    CIL library: CIL module
 0001:000317ce       $L165144                   100327ce f    CIL library: CIL module
 0001:000317d8       __ehhandler$@FindFileChangeEx@4 100327d8 f    CIL library: CIL module
 0001:000317e2       __ehhandler$@CancelFileChange@4 100327e2 f    CIL library: CIL module
 0001:000317ec       $L165233                   100327ec f    CIL library: CIL module
 0001:000317f7       $L165234                   100327f7 f    CIL library: CIL module
 0001:000317ff       __ehhandler$@FindFileChange@4 100327ff f    CIL library: CIL module
 0001:00031809       $L165298                   10032809 f    CIL library: CIL module
 0001:00031814       $L165299                   10032814 f    CIL library: CIL module
 0001:0003181f       $L165300                   1003281f f    CIL library: CIL module
 0001:00031827       $L165301                   10032827 f    CIL library: CIL module
 0001:00031834       __ehhandler$@UrlDownloadToFileEx@4 10032834 f    CIL library: CIL module
 0001:0003183e       $L165369                   1003283e f    CIL library: CIL module
 0001:00031849       $L165370                   10032849 f    CIL library: CIL module
 0001:00031851       $L165371                   10032851 f    CIL library: CIL module
 0001:0003185c       $L165372                   1003285c f    CIL library: CIL module
 0001:00031867       $L165373                   10032867 f    CIL library: CIL module
 0001:0003186f       __ehhandler$@WriteRegistryKey@4 1003286f f    CIL library: CIL module
 0001:00031879       $L165469                   10032879 f    CIL library: CIL module
 0001:00031884       $L165470                   10032884 f    CIL library: CIL module
 0001:0003188f       $L165471                   1003288f f    CIL library: CIL module
 0001:0003189a       __ehhandler$@RasDialEx@4   1003289a f    CIL library: CIL module
 0001:000318a4       $L165695                   100328a4 f    CIL library: CIL module
 0001:000318af       $L165696                   100328af f    CIL library: CIL module
 0001:000318b7       __ehhandler$@ASQLDrivers@4 100328b7 f    CIL library: CIL module
 0001:000318c1       $L165752                   100328c1 f    CIL library: CIL module
 0001:000318c9       $L165753                   100328c9 f    CIL library: CIL module
 0001:000318d4       __ehhandler$@ASQLDataSources@4 100328d4 f    CIL library: CIL module
 0001:000318de       $L165848                   100328de f    CIL library: CIL module
 0001:000318e8       __ehhandler$@CreateThreadObject@4 100328e8 f    CIL library: CIL module
 0001:000318f2       $L138835                   100328f2 f    CIL library: CIL module
 0001:000318fd       __ehhandler$??0VolumeMountPointSearch@@QAE@XZ 100328fd f    CIL library: CIL module
 0001:00031907       $L138889                   10032907 f    CIL library: CIL module
 0001:00031907       $L138877                   10032907 f    CIL library: CIL module
 0001:00031914       __ehhandler$??0WindowEnumParamEx@@QAE@XZ 10032914 f    CIL library: CIL module
 0001:00031914       __ehhandler$??0EnumParameter@@QAE@XZ 10032914 f    CIL library: CIL module
 0001:0003191e       $L139147                   1003291e f    CIL library: CIL module
 0001:00031926       __ehhandler$?Init@CFoxVersion@@CGXXZ 10032926 f    CIL library: CIL module
 0001:00031930       $L139341                   10032930 f    CIL library: CIL module
 0001:0003193b       $L139342                   1003293b f    CIL library: CIL module
 0001:00031946       __ehhandler$?ToLower@CComBSTR@ATL@@QAEJXZ 10032946 f    CIL library: CIL module
 0001:00031950       __ehhandler$?Rehash@?$CAtlMap@GPAVFindFileChangeExEntry@@V?$CElementTraits@G@ATL@@V?$CElementTraits@PAVFindFileChangeExEntry@@@3@@ATL@@QAEXI@Z 10032950 f    CIL library: CIL module
 0001:0003195a       $L141933                   1003295a f    CIL library: CIL module
 0001:00031962       __ehhandler$??1UrlDownloadThread@@QAE@XZ 10032962 f    CIL library: CIL module
 0001:0003196c       $L148805                   1003296c f    CIL library: CIL module
 0001:00031974       __ehhandler$?InitDispId@?$FoxComCallback@$03@@AAEXAAVFoxString@@@Z 10032974 f    CIL library: CIL module
 0001:0003197e       $L149437                   1003297e f    CIL library: CIL module
 0001:00031986       $L149438                   10032986 f    CIL library: CIL module
 0001:00031991       $L149439                   10032991 f    CIL library: CIL module
 0001:0003199c       __ehhandler$??1FindFileChangeExThread@@QAE@XZ 1003299c f    CIL library: CIL module
 0001:000319a6       _$E5                       100329a6 f   vfp2curlmon.obj
 0001:000319bc       _$E5                       100329bc f   vfp2curlmon.obj
 0001:000319d2       _$E1                       100329d2 f   winapims:apicsect.obj
 0001:000319e9       _$E5                       100329e9 f   atls:atlbase.obj
 0001:000319ff       _$E6                       100329ff f   vfp2curlmon.obj
 0001:00031a0c       _$E6                       10032a0c f   vfp2curlmon.obj
 0001:00031a16       _$E6                       10032a16 f   vfp2curlmon.obj
 0001:00031a20       _$E6                       10032a20 f   vfp2curlmon.obj
 0001:00031a2d       _$E2                       10032a2d f   winapims:apicsect.obj
 0001:00031a37       _$E6                       10032a37 f   atls:atlbase.obj
